
blink.elf:     file format elf32-littlearm

Sections:
Idx Name          Size      VMA       LMA       File off  Algn
  0 .text         00001144  00000000  00000000  00008000  2**2
                  CONTENTS, ALLOC, LOAD, READONLY, CODE
  1 .relocate     00000438  20000000  00001144  00010000  2**3
                  CONTENTS, ALLOC, LOAD, DATA
  2 .bss          0000001c  20000438  0000157c  00010438  2**2
                  ALLOC
  3 .stack        00000404  20000454  00001598  00010438  2**0
                  ALLOC
  4 .ARM.attributes 00000028  00000000  00000000  00010438  2**0
                  CONTENTS, READONLY
  5 .comment      0000005b  00000000  00000000  00010460  2**0
                  CONTENTS, READONLY
  6 .debug_info   00005cd9  00000000  00000000  000104bb  2**0
                  CONTENTS, READONLY, DEBUGGING
  7 .debug_abbrev 0000057e  00000000  00000000  00016194  2**0
                  CONTENTS, READONLY, DEBUGGING
  8 .debug_loc    00000081  00000000  00000000  00016712  2**0
                  CONTENTS, READONLY, DEBUGGING
  9 .debug_aranges 00000098  00000000  00000000  00016793  2**0
                  CONTENTS, READONLY, DEBUGGING
 10 .debug_ranges 00000068  00000000  00000000  0001682b  2**0
                  CONTENTS, READONLY, DEBUGGING
 11 .debug_macro  0000af8d  00000000  00000000  00016893  2**0
                  CONTENTS, READONLY, DEBUGGING
 12 .debug_line   0000124e  00000000  00000000  00021820  2**0
                  CONTENTS, READONLY, DEBUGGING
 13 .debug_str    000412ef  00000000  00000000  00022a6e  2**0
                  CONTENTS, READONLY, DEBUGGING
 14 .debug_frame  000003a0  00000000  00000000  00063d60  2**2
                  CONTENTS, READONLY, DEBUGGING

Disassembly of section .text:

00000000 <_sfixed>:
       0:	20000858 	.word	0x20000858
       4:	000000f1 	.word	0x000000f1
       8:	000000ed 	.word	0x000000ed
       c:	000000ed 	.word	0x000000ed
	...
      2c:	000000ed 	.word	0x000000ed
	...
      38:	000000ed 	.word	0x000000ed
      3c:	000000ed 	.word	0x000000ed
      40:	000000ed 	.word	0x000000ed
      44:	000000ed 	.word	0x000000ed
      48:	000000ed 	.word	0x000000ed
      4c:	000000ed 	.word	0x000000ed
      50:	000000ed 	.word	0x000000ed
      54:	000000ed 	.word	0x000000ed
      58:	000000ed 	.word	0x000000ed
      5c:	00000000 	.word	0x00000000
      60:	000000ed 	.word	0x000000ed
      64:	000000ed 	.word	0x000000ed
      68:	0000032d 	.word	0x0000032d
	...
      74:	0000023d 	.word	0x0000023d
      78:	000000ed 	.word	0x000000ed
      7c:	000000ed 	.word	0x000000ed
	...
      88:	000000ed 	.word	0x000000ed

0000008c <__do_global_dtors_aux>:
      8c:	b510      	push	{r4, lr}
      8e:	4c06      	ldr	r4, [pc, #24]	; (a8 <__do_global_dtors_aux+0x1c>)
      90:	7823      	ldrb	r3, [r4, #0]
      92:	2b00      	cmp	r3, #0
      94:	d107      	bne.n	a6 <__do_global_dtors_aux+0x1a>
      96:	4b05      	ldr	r3, [pc, #20]	; (ac <__do_global_dtors_aux+0x20>)
      98:	2b00      	cmp	r3, #0
      9a:	d002      	beq.n	a2 <__do_global_dtors_aux+0x16>
      9c:	4804      	ldr	r0, [pc, #16]	; (b0 <__do_global_dtors_aux+0x24>)
      9e:	e000      	b.n	a2 <__do_global_dtors_aux+0x16>
      a0:	bf00      	nop
      a2:	2301      	movs	r3, #1
      a4:	7023      	strb	r3, [r4, #0]
      a6:	bd10      	pop	{r4, pc}
      a8:	20000438 	.word	0x20000438
      ac:	00000000 	.word	0x00000000
      b0:	00001144 	.word	0x00001144

000000b4 <frame_dummy>:
      b4:	b508      	push	{r3, lr}
      b6:	4b08      	ldr	r3, [pc, #32]	; (d8 <frame_dummy+0x24>)
      b8:	2b00      	cmp	r3, #0
      ba:	d003      	beq.n	c4 <frame_dummy+0x10>
      bc:	4807      	ldr	r0, [pc, #28]	; (dc <frame_dummy+0x28>)
      be:	4908      	ldr	r1, [pc, #32]	; (e0 <frame_dummy+0x2c>)
      c0:	e000      	b.n	c4 <frame_dummy+0x10>
      c2:	bf00      	nop
      c4:	4807      	ldr	r0, [pc, #28]	; (e4 <frame_dummy+0x30>)
      c6:	6803      	ldr	r3, [r0, #0]
      c8:	2b00      	cmp	r3, #0
      ca:	d100      	bne.n	ce <frame_dummy+0x1a>
      cc:	bd08      	pop	{r3, pc}
      ce:	4b06      	ldr	r3, [pc, #24]	; (e8 <frame_dummy+0x34>)
      d0:	2b00      	cmp	r3, #0
      d2:	d0fb      	beq.n	cc <frame_dummy+0x18>
      d4:	4798      	blx	r3
      d6:	e7f9      	b.n	cc <frame_dummy+0x18>
      d8:	00000000 	.word	0x00000000
      dc:	00001144 	.word	0x00001144
      e0:	2000043c 	.word	0x2000043c
      e4:	00001144 	.word	0x00001144
      e8:	00000000 	.word	0x00000000

000000ec <Dummy_Handler>:
 * \brief Default interrupt handler for unused IRQs.
 */
void Dummy_Handler(void)
{
        while (1) {
        }
      ec:	e7fe      	b.n	ec <Dummy_Handler>
      ee:	46c0      	nop			; (mov r8, r8)

000000f0 <Reset_Handler>:
/**
 * \brief This is the code that gets called on processor reset.
 * To initialize the device, and call the main() routine.
 */
void Reset_Handler(void)
{
      f0:	b510      	push	{r4, lr}

        /* Initialize the relocate segment */
        pSrc = &_etext;
        pDest = &_srelocate;

        if (pSrc != pDest) {
      f2:	4b2b      	ldr	r3, [pc, #172]	; (1a0 <Reset_Handler+0xb0>)
      f4:	4a2b      	ldr	r2, [pc, #172]	; (1a4 <Reset_Handler+0xb4>)
      f6:	429a      	cmp	r2, r3
      f8:	d003      	beq.n	102 <Reset_Handler+0x12>
                for (; pDest < &_erelocate;) {
      fa:	4b2b      	ldr	r3, [pc, #172]	; (1a8 <Reset_Handler+0xb8>)
      fc:	4a28      	ldr	r2, [pc, #160]	; (1a0 <Reset_Handler+0xb0>)
      fe:	429a      	cmp	r2, r3
     100:	d304      	bcc.n	10c <Reset_Handler+0x1c>
                        *pDest++ = *pSrc++;
                }
        }

        /* Clear the zero segment */
        for (pDest = &_szero; pDest < &_ezero;) {
     102:	4b2a      	ldr	r3, [pc, #168]	; (1ac <Reset_Handler+0xbc>)
     104:	4a2a      	ldr	r2, [pc, #168]	; (1b0 <Reset_Handler+0xc0>)
     106:	429a      	cmp	r2, r3
     108:	d310      	bcc.n	12c <Reset_Handler+0x3c>
     10a:	e01e      	b.n	14a <Reset_Handler+0x5a>
     10c:	4a29      	ldr	r2, [pc, #164]	; (1b4 <Reset_Handler+0xc4>)
     10e:	4b26      	ldr	r3, [pc, #152]	; (1a8 <Reset_Handler+0xb8>)
     110:	3303      	adds	r3, #3
     112:	1a9b      	subs	r3, r3, r2
     114:	089b      	lsrs	r3, r3, #2
     116:	3301      	adds	r3, #1
     118:	009b      	lsls	r3, r3, #2
        /* Initialize the relocate segment */
        pSrc = &_etext;
        pDest = &_srelocate;

        if (pSrc != pDest) {
                for (; pDest < &_erelocate;) {
     11a:	2200      	movs	r2, #0
                        *pDest++ = *pSrc++;
     11c:	4820      	ldr	r0, [pc, #128]	; (1a0 <Reset_Handler+0xb0>)
     11e:	4921      	ldr	r1, [pc, #132]	; (1a4 <Reset_Handler+0xb4>)
     120:	588c      	ldr	r4, [r1, r2]
     122:	5084      	str	r4, [r0, r2]
     124:	3204      	adds	r2, #4
        /* Initialize the relocate segment */
        pSrc = &_etext;
        pDest = &_srelocate;

        if (pSrc != pDest) {
                for (; pDest < &_erelocate;) {
     126:	429a      	cmp	r2, r3
     128:	d1fa      	bne.n	120 <Reset_Handler+0x30>
     12a:	e7ea      	b.n	102 <Reset_Handler+0x12>
     12c:	4a22      	ldr	r2, [pc, #136]	; (1b8 <Reset_Handler+0xc8>)
     12e:	4b1f      	ldr	r3, [pc, #124]	; (1ac <Reset_Handler+0xbc>)
     130:	3303      	adds	r3, #3
     132:	1a9b      	subs	r3, r3, r2
     134:	089b      	lsrs	r3, r3, #2
     136:	3301      	adds	r3, #1
     138:	009b      	lsls	r3, r3, #2
                        *pDest++ = *pSrc++;
                }
        }

        /* Clear the zero segment */
        for (pDest = &_szero; pDest < &_ezero;) {
     13a:	2200      	movs	r2, #0
                *pDest++ = 0;
     13c:	481c      	ldr	r0, [pc, #112]	; (1b0 <Reset_Handler+0xc0>)
     13e:	2100      	movs	r1, #0
     140:	1814      	adds	r4, r2, r0
     142:	6021      	str	r1, [r4, #0]
     144:	3204      	adds	r2, #4
                        *pDest++ = *pSrc++;
                }
        }

        /* Clear the zero segment */
        for (pDest = &_szero; pDest < &_ezero;) {
     146:	429a      	cmp	r2, r3
     148:	d1fa      	bne.n	140 <Reset_Handler+0x50>
                *pDest++ = 0;
        }

        /* Set the vector table base address */
        pSrc = (uint32_t *) & _sfixed;
        SCB->VTOR = ((uint32_t) pSrc & SCB_VTOR_TBLOFF_Msk);
     14a:	4a1c      	ldr	r2, [pc, #112]	; (1bc <Reset_Handler+0xcc>)
     14c:	21ff      	movs	r1, #255	; 0xff
     14e:	4b1c      	ldr	r3, [pc, #112]	; (1c0 <Reset_Handler+0xd0>)
     150:	438b      	bics	r3, r1
     152:	6093      	str	r3, [r2, #8]

        /* Change default QOS values to have the best performance and correct USB behaviour */
        SBMATRIX->SFR[SBMATRIX_SLAVE_HMCRAMC0].reg = 2;
     154:	39fd      	subs	r1, #253	; 0xfd
     156:	2390      	movs	r3, #144	; 0x90
     158:	005b      	lsls	r3, r3, #1
     15a:	4a1a      	ldr	r2, [pc, #104]	; (1c4 <Reset_Handler+0xd4>)
     15c:	50d1      	str	r1, [r2, r3]
#if defined(ID_USB)
        USB->DEVICE.QOSCTRL.bit.CQOS = 2;
        USB->DEVICE.QOSCTRL.bit.DQOS = 2;
#endif
        DMAC->QOSCTRL.bit.DQOS = 2;
     15e:	4b1a      	ldr	r3, [pc, #104]	; (1c8 <Reset_Handler+0xd8>)
     160:	7b9a      	ldrb	r2, [r3, #14]
     162:	312e      	adds	r1, #46	; 0x2e
     164:	438a      	bics	r2, r1
     166:	1c11      	adds	r1, r2, #0
     168:	2220      	movs	r2, #32
     16a:	430a      	orrs	r2, r1
     16c:	739a      	strb	r2, [r3, #14]
        DMAC->QOSCTRL.bit.FQOS = 2;
     16e:	7b9a      	ldrb	r2, [r3, #14]
     170:	210c      	movs	r1, #12
     172:	438a      	bics	r2, r1
     174:	1c11      	adds	r1, r2, #0
     176:	2208      	movs	r2, #8
     178:	430a      	orrs	r2, r1
     17a:	739a      	strb	r2, [r3, #14]
        DMAC->QOSCTRL.bit.WRBQOS = 2;
     17c:	7b9a      	ldrb	r2, [r3, #14]
     17e:	2103      	movs	r1, #3
     180:	438a      	bics	r2, r1
     182:	1c11      	adds	r1, r2, #0
     184:	2202      	movs	r2, #2
     186:	430a      	orrs	r2, r1
     188:	739a      	strb	r2, [r3, #14]

        /* Overwriting the default value of the NVMCTRL.CTRLB.MANW bit (errata reference 13134) */
        NVMCTRL->CTRLB.bit.MANW = 1;
     18a:	4a10      	ldr	r2, [pc, #64]	; (1cc <Reset_Handler+0xdc>)
     18c:	6851      	ldr	r1, [r2, #4]
     18e:	2380      	movs	r3, #128	; 0x80
     190:	430b      	orrs	r3, r1
     192:	6053      	str	r3, [r2, #4]

        /* Initialize the C library */
        __libc_init_array();
     194:	4b0e      	ldr	r3, [pc, #56]	; (1d0 <Reset_Handler+0xe0>)
     196:	4798      	blx	r3

        /* Branch to main function */
        main();
     198:	4b0e      	ldr	r3, [pc, #56]	; (1d4 <Reset_Handler+0xe4>)
     19a:	4798      	blx	r3

        /* Infinite loop */
        while (1);
     19c:	e7fe      	b.n	19c <Reset_Handler+0xac>
     19e:	46c0      	nop			; (mov r8, r8)
     1a0:	20000000 	.word	0x20000000
     1a4:	00001144 	.word	0x00001144
     1a8:	20000438 	.word	0x20000438
     1ac:	20000454 	.word	0x20000454
     1b0:	20000438 	.word	0x20000438
     1b4:	20000004 	.word	0x20000004
     1b8:	2000043c 	.word	0x2000043c
     1bc:	e000ed00 	.word	0xe000ed00
     1c0:	00000000 	.word	0x00000000
     1c4:	41007000 	.word	0x41007000
     1c8:	41004800 	.word	0x41004800
     1cc:	41004000 	.word	0x41004000
     1d0:	00000ee1 	.word	0x00000ee1
     1d4:	0000036d 	.word	0x0000036d

000001d8 <SystemInit>:
 *         Initialize the System and update the SystemCoreClock variable.
 */
void SystemInit(void)
{
	// Keep the default device state after reset
	SystemCoreClock = __SYSTEM_CLOCK;
     1d8:	4a01      	ldr	r2, [pc, #4]	; (1e0 <SystemInit+0x8>)
     1da:	4b02      	ldr	r3, [pc, #8]	; (1e4 <SystemInit+0xc>)
     1dc:	601a      	str	r2, [r3, #0]
	return;
}
     1de:	4770      	bx	lr
     1e0:	000f4240 	.word	0x000f4240
     1e4:	20000000 	.word	0x20000000

000001e8 <_Z8init_TC1v>:
uint8_t UART_sercom_init(Sercom *const sercom_module);

void init_TC1(void)
{
	//setup clock for timer/counters
	REG_GCLK_CLKCTRL = GCLK_CLKCTRL_CLKEN | GCLK_CLKCTRL_GEN_GCLK0 | GCLK_CLKCTRL_ID_TC1_TC2;
     1e8:	4a0e      	ldr	r2, [pc, #56]	; (224 <_Z8init_TC1v+0x3c>)
     1ea:	4b0f      	ldr	r3, [pc, #60]	; (228 <_Z8init_TC1v+0x40>)
     1ec:	801a      	strh	r2, [r3, #0]
	REG_PM_APBCMASK |= PM_APBCMASK_TC1;
     1ee:	4a0f      	ldr	r2, [pc, #60]	; (22c <_Z8init_TC1v+0x44>)
     1f0:	6811      	ldr	r1, [r2, #0]
     1f2:	2340      	movs	r3, #64	; 0x40
     1f4:	430b      	orrs	r3, r1
     1f6:	6013      	str	r3, [r2, #0]
	REG_TC1_CTRLA |=TC_CTRLA_PRESCALER_DIV8;	// prescaler: 8
     1f8:	4b0d      	ldr	r3, [pc, #52]	; (230 <_Z8init_TC1v+0x48>)
     1fa:	8819      	ldrh	r1, [r3, #0]
     1fc:	22c0      	movs	r2, #192	; 0xc0
     1fe:	0092      	lsls	r2, r2, #2
     200:	430a      	orrs	r2, r1
     202:	801a      	strh	r2, [r3, #0]
	REG_TC1_INTENSET = TC_INTENSET_OVF;		// enable overflow interrupt
     204:	2101      	movs	r1, #1
     206:	4a0b      	ldr	r2, [pc, #44]	; (234 <_Z8init_TC1v+0x4c>)
     208:	7011      	strb	r1, [r2, #0]
	REG_TC1_CTRLA |= TC_CTRLA_ENABLE;		// enable TC1
     20a:	8819      	ldrh	r1, [r3, #0]
     20c:	2202      	movs	r2, #2
     20e:	430a      	orrs	r2, r1
     210:	801a      	strh	r2, [r3, #0]
	while(TC1->COUNT16.STATUS.bit.SYNCBUSY==1);	// wait on sync
     212:	1c1a      	adds	r2, r3, #0
     214:	7bd3      	ldrb	r3, [r2, #15]
     216:	09db      	lsrs	r3, r3, #7
     218:	d1fc      	bne.n	214 <_Z8init_TC1v+0x2c>

    \param [in]      IRQn  External interrupt number. Value cannot be negative.
 */
__STATIC_INLINE void NVIC_EnableIRQ(IRQn_Type IRQn)
{
  NVIC->ISER[0] = (1 << ((uint32_t)(IRQn) & 0x1F));
     21a:	2280      	movs	r2, #128	; 0x80
     21c:	0192      	lsls	r2, r2, #6
     21e:	4b06      	ldr	r3, [pc, #24]	; (238 <_Z8init_TC1v+0x50>)
     220:	601a      	str	r2, [r3, #0]
	NVIC_EnableIRQ(TC1_IRQn);			// enable TC1 interrupt in the nested interrupt controller
}
     222:	4770      	bx	lr
     224:	00004012 	.word	0x00004012
     228:	40000c02 	.word	0x40000c02
     22c:	40000420 	.word	0x40000420
     230:	42001800 	.word	0x42001800
     234:	4200180d 	.word	0x4200180d
     238:	e000e100 	.word	0xe000e100

0000023c <TC1_Handler>:

void TC1_Handler()
{
	REG_PORT_OUTTGL0 = PORT_PA14;		// troggle PA02
     23c:	2280      	movs	r2, #128	; 0x80
     23e:	01d2      	lsls	r2, r2, #7
     240:	4b02      	ldr	r3, [pc, #8]	; (24c <TC1_Handler+0x10>)
     242:	601a      	str	r2, [r3, #0]
	REG_TC1_INTFLAG = TC_INTFLAG_OVF;	// reset interrupt flag - NEEDED HERE!
     244:	2201      	movs	r2, #1
     246:	4b02      	ldr	r3, [pc, #8]	; (250 <TC1_Handler+0x14>)
     248:	701a      	strb	r2, [r3, #0]
}
     24a:	4770      	bx	lr
     24c:	4100441c 	.word	0x4100441c
     250:	4200180e 	.word	0x4200180e

00000254 <_Z16UART_sercom_initv>:
    // set new values
    PORT->Group[port].PMUX[pin/2].reg |=  ( (uint8_t)( (pinmux&0xFFFF) <<(4*(pin&1)) ) ); 
}

void UART_sercom_init()
{
     254:	b510      	push	{r4, lr}
	//port muxer config
	PORT->Group[1].PINCFG[PINMUX_PA22C_SERCOM1_PAD0].bit.PMUXEN = 1;
     256:	4b25      	ldr	r3, [pc, #148]	; (2ec <_Z16UART_sercom_initv+0x98>)
     258:	4825      	ldr	r0, [pc, #148]	; (2f0 <_Z16UART_sercom_initv+0x9c>)
     25a:	5c1a      	ldrb	r2, [r3, r0]
     25c:	2101      	movs	r1, #1
     25e:	430a      	orrs	r2, r1
     260:	541a      	strb	r2, [r3, r0]
	PORT->Group[1].PINCFG[PINMUX_PA25C_SERCOM1_PAD3].bit.PMUXEN = 1;
     262:	4824      	ldr	r0, [pc, #144]	; (2f4 <_Z16UART_sercom_initv+0xa0>)
     264:	5c1a      	ldrb	r2, [r3, r0]
     266:	430a      	orrs	r2, r1
     268:	541a      	strb	r2, [r3, r0]
    */
    uint16_t pad = pinmux >> 16;    // get pad (port+pin)
    uint8_t port = pad >> 5;        // get port
    uint8_t pin  = pad & 0x1F;      // get number of pin - no port information anymore
    
    PORT->Group[port].PINCFG[pin].bit.PMUXEN =1;
     26a:	2059      	movs	r0, #89	; 0x59
     26c:	5c1a      	ldrb	r2, [r3, r0]
     26e:	430a      	orrs	r2, r1
     270:	541a      	strb	r2, [r3, r0]
    
    /* each pinmux register is for two pins! with pin/2 you can get the index of the needed pinmux register
       the p mux resiter is 8Bit   (7:4 odd pin; 3:0 evan bit)  */
    // reset pinmux values.                             VV shift if pin is odd (if evan:  (4*(pin & 1))==0  )
    PORT->Group[port].PMUX[pin/2].reg &= ~( 0xF << (4*(pin & 1)) );
     272:	223c      	movs	r2, #60	; 0x3c
     274:	5c9c      	ldrb	r4, [r3, r2]
     276:	384a      	subs	r0, #74	; 0x4a
     278:	4020      	ands	r0, r4
     27a:	5498      	strb	r0, [r3, r2]
                    //          
    // set new values
    PORT->Group[port].PMUX[pin/2].reg |=  ( (uint8_t)( (pinmux&0xFFFF) <<(4*(pin&1)) ) ); 
     27c:	5c9c      	ldrb	r4, [r3, r2]
     27e:	2020      	movs	r0, #32
     280:	4320      	orrs	r0, r4
     282:	5498      	strb	r0, [r3, r2]
    */
    uint16_t pad = pinmux >> 16;    // get pad (port+pin)
    uint8_t port = pad >> 5;        // get port
    uint8_t pin  = pad & 0x1F;      // get number of pin - no port information anymore
    
    PORT->Group[port].PINCFG[pin].bit.PMUXEN =1;
     284:	2058      	movs	r0, #88	; 0x58
     286:	5c1c      	ldrb	r4, [r3, r0]
     288:	4321      	orrs	r1, r4
     28a:	5419      	strb	r1, [r3, r0]
    
    /* each pinmux register is for two pins! with pin/2 you can get the index of the needed pinmux register
       the p mux resiter is 8Bit   (7:4 odd pin; 3:0 evan bit)  */
    // reset pinmux values.                             VV shift if pin is odd (if evan:  (4*(pin & 1))==0  )
    PORT->Group[port].PMUX[pin/2].reg &= ~( 0xF << (4*(pin & 1)) );
     28c:	5c99      	ldrb	r1, [r3, r2]
     28e:	3849      	subs	r0, #73	; 0x49
     290:	4381      	bics	r1, r0
     292:	5499      	strb	r1, [r3, r2]
                    //          
    // set new values
    PORT->Group[port].PMUX[pin/2].reg |=  ( (uint8_t)( (pinmux&0xFFFF) <<(4*(pin&1)) ) ); 
     294:	5c98      	ldrb	r0, [r3, r2]
     296:	2102      	movs	r1, #2
     298:	4301      	orrs	r1, r0
     29a:	5499      	strb	r1, [r3, r2]
	//PORT->Group[1].PMUX[PINMUX_PA22C_SERCOM1_PAD0 >> 1].reg = 0x23;
	pin_set_peripheral_function(PINMUX_PA25C_SERCOM1_PAD3); // SAMD09 TX
	pin_set_peripheral_function(PINMUX_PA24C_SERCOM1_PAD2); // SAMD09 RX
	
	//apbcmak
	PM->APBCMASK.reg |= PM_APBCMASK_SERCOM1;
     29c:	4a16      	ldr	r2, [pc, #88]	; (2f8 <_Z16UART_sercom_initv+0xa4>)
     29e:	6a11      	ldr	r1, [r2, #32]
     2a0:	2308      	movs	r3, #8
     2a2:	430b      	orrs	r3, r1
     2a4:	6213      	str	r3, [r2, #32]
	
	
	//gclk config
	GCLK->CLKCTRL.reg = GCLK_CLKCTRL_ID(SERCOM1_GCLK_ID_CORE) | GCLK_CLKCTRL_GEN(0) | GCLK_CLKCTRL_CLKEN;
     2a6:	4a15      	ldr	r2, [pc, #84]	; (2fc <_Z16UART_sercom_initv+0xa8>)
     2a8:	4b15      	ldr	r3, [pc, #84]	; (300 <_Z16UART_sercom_initv+0xac>)
     2aa:	805a      	strh	r2, [r3, #2]
	
	//Config SERCOM1 module for UART
	SERCOM1->USART.CTRLA.reg = SERCOM_USART_CTRLA_MODE_USART_INT_CLK | SERCOM_USART_CTRLA_DORD | SERCOM_USART_CTRLA_RXPO(0x3) | SERCOM_USART_CTRLA_TXPO(0x1);
     2ac:	4c15      	ldr	r4, [pc, #84]	; (304 <_Z16UART_sercom_initv+0xb0>)
     2ae:	4b16      	ldr	r3, [pc, #88]	; (308 <_Z16UART_sercom_initv+0xb4>)
     2b0:	6023      	str	r3, [r4, #0]
	
	SERCOM1->USART.CTRLB.reg = SERCOM_USART_CTRLB_RXEN | SERCOM_USART_CTRLB_TXEN | SERCOM_USART_CTRLB_CHSIZE(0);
     2b2:	23c0      	movs	r3, #192	; 0xc0
     2b4:	029b      	lsls	r3, r3, #10
     2b6:	6063      	str	r3, [r4, #4]
	
	SERCOM1->USART.BAUD.reg = 65535.0f * (1.0f - (float)(16*(float)(9600)/float(USART_BAUD_MODIFIER_SLOW))); //This gets the miniSam exactly at 9800 baud.
     2b8:	4b14      	ldr	r3, [pc, #80]	; (30c <_Z16UART_sercom_initv+0xb8>)
     2ba:	6818      	ldr	r0, [r3, #0]
     2bc:	4b14      	ldr	r3, [pc, #80]	; (310 <_Z16UART_sercom_initv+0xbc>)
     2be:	4798      	blx	r3
     2c0:	1c01      	adds	r1, r0, #0
     2c2:	4814      	ldr	r0, [pc, #80]	; (314 <_Z16UART_sercom_initv+0xc0>)
     2c4:	4b14      	ldr	r3, [pc, #80]	; (318 <_Z16UART_sercom_initv+0xc4>)
     2c6:	4798      	blx	r3
     2c8:	1c01      	adds	r1, r0, #0
     2ca:	20fe      	movs	r0, #254	; 0xfe
     2cc:	0580      	lsls	r0, r0, #22
     2ce:	4b13      	ldr	r3, [pc, #76]	; (31c <_Z16UART_sercom_initv+0xc8>)
     2d0:	4798      	blx	r3
     2d2:	4913      	ldr	r1, [pc, #76]	; (320 <_Z16UART_sercom_initv+0xcc>)
     2d4:	4b13      	ldr	r3, [pc, #76]	; (324 <_Z16UART_sercom_initv+0xd0>)
     2d6:	4798      	blx	r3
     2d8:	4b13      	ldr	r3, [pc, #76]	; (328 <_Z16UART_sercom_initv+0xd4>)
     2da:	4798      	blx	r3
     2dc:	b280      	uxth	r0, r0
     2de:	81a0      	strh	r0, [r4, #12]
	/* for 115200 baud compiler does not like this.*/
	//SERCOM1->USART.BAUD.reg = 65535.0f * (1.0f - (float)(16*(float)(USART_BAUD_MODIFIER_FAST)/(8000000)));
	
	SERCOM1->USART.CTRLA.reg |= SERCOM_USART_CTRLA_ENABLE;
     2e0:	6822      	ldr	r2, [r4, #0]
     2e2:	2302      	movs	r3, #2
     2e4:	4313      	orrs	r3, r2
     2e6:	6023      	str	r3, [r4, #0]
	
}
     2e8:	bd10      	pop	{r4, pc}
     2ea:	46c0      	nop			; (mov r8, r8)
     2ec:	41004400 	.word	0x41004400
     2f0:	001600c2 	.word	0x001600c2
     2f4:	001900c2 	.word	0x001900c2
     2f8:	40000400 	.word	0x40000400
     2fc:	0000400f 	.word	0x0000400f
     300:	40000c00 	.word	0x40000c00
     304:	42000c00 	.word	0x42000c00
     308:	40310004 	.word	0x40310004
     30c:	20000004 	.word	0x20000004
     310:	00000c2d 	.word	0x00000c2d
     314:	48160000 	.word	0x48160000
     318:	0000041d 	.word	0x0000041d
     31c:	000008f1 	.word	0x000008f1
     320:	477fff00 	.word	0x477fff00
     324:	0000068d 	.word	0x0000068d
     328:	000003ed 	.word	0x000003ed

0000032c <SERCOM1_Handler>:

void SERCOM1_Handler()  // SERCOM1 ISR
{
    uint8_t buffer;
    buffer  = SERCOM1->USART.DATA.reg;
     32c:	4b08      	ldr	r3, [pc, #32]	; (350 <SERCOM1_Handler+0x24>)
     32e:	8d1b      	ldrh	r3, [r3, #40]	; 0x28
     330:	b298      	uxth	r0, r3
    while(!(SERCOM1->USART.INTFLAG.reg & 1)); // wait UART module ready to receive data
     332:	4907      	ldr	r1, [pc, #28]	; (350 <SERCOM1_Handler+0x24>)
     334:	2201      	movs	r2, #1
     336:	7e0b      	ldrb	r3, [r1, #24]
     338:	4213      	tst	r3, r2
     33a:	d0fc      	beq.n	336 <SERCOM1_Handler+0xa>
    SERCOM1->USART.DATA.reg = buffer;               // just sent that byte aback
     33c:	23ff      	movs	r3, #255	; 0xff
     33e:	4003      	ands	r3, r0
     340:	4a03      	ldr	r2, [pc, #12]	; (350 <SERCOM1_Handler+0x24>)
     342:	8513      	strh	r3, [r2, #40]	; 0x28
    while(!(SERCOM1->USART.INTFLAG.reg & 2)); // wait until TX complete;
     344:	1c11      	adds	r1, r2, #0
     346:	2202      	movs	r2, #2
     348:	7e0b      	ldrb	r3, [r1, #24]
     34a:	4213      	tst	r3, r2
     34c:	d0fc      	beq.n	348 <SERCOM1_Handler+0x1c>
}
     34e:	4770      	bx	lr
     350:	42000c00 	.word	0x42000c00

00000354 <_Z23UART_sercom_simpleWriteP6Sercomh>:


void UART_sercom_simpleWrite(Sercom *const sercom_module, uint8_t data)
{
    while(!(sercom_module->USART.INTFLAG.reg & 1)); //wait UART module ready to receive data
     354:	2201      	movs	r2, #1
     356:	7e03      	ldrb	r3, [r0, #24]
     358:	4213      	tst	r3, r2
     35a:	d0fc      	beq.n	356 <_Z23UART_sercom_simpleWriteP6Sercomh+0x2>
    sercom_module->USART.DATA.reg = data;
     35c:	b289      	uxth	r1, r1
     35e:	8501      	strh	r1, [r0, #40]	; 0x28
    while(!(sercom_module->USART.INTFLAG.reg & 2)); //wait until TX complete;
     360:	2202      	movs	r2, #2
     362:	7e03      	ldrb	r3, [r0, #24]
     364:	4213      	tst	r3, r2
     366:	d0fc      	beq.n	362 <_Z23UART_sercom_simpleWriteP6Sercomh+0xe>
}
     368:	4770      	bx	lr
     36a:	46c0      	nop			; (mov r8, r8)

0000036c <main>:

int main(void)
{
     36c:	b538      	push	{r3, r4, r5, lr}
    /* Initialize the SAM system */
    SystemInit();
     36e:	4b19      	ldr	r3, [pc, #100]	; (3d4 <main+0x68>)
     370:	4798      	blx	r3
	init_TC1();
     372:	4b19      	ldr	r3, [pc, #100]	; (3d8 <main+0x6c>)
     374:	4798      	blx	r3
	REG_PORT_DIR0 |= (1 << 14);
     376:	4a19      	ldr	r2, [pc, #100]	; (3dc <main+0x70>)
     378:	6813      	ldr	r3, [r2, #0]
     37a:	2180      	movs	r1, #128	; 0x80
     37c:	01c9      	lsls	r1, r1, #7
     37e:	430b      	orrs	r3, r1
     380:	6013      	str	r3, [r2, #0]
	
	UART_sercom_init();
     382:	4b17      	ldr	r3, [pc, #92]	; (3e0 <main+0x74>)
     384:	4798      	blx	r3
	
	UART_sercom_simpleWrite(SERCOM1, 'H');
     386:	4d17      	ldr	r5, [pc, #92]	; (3e4 <main+0x78>)
     388:	1c28      	adds	r0, r5, #0
     38a:	2148      	movs	r1, #72	; 0x48
     38c:	4c16      	ldr	r4, [pc, #88]	; (3e8 <main+0x7c>)
     38e:	47a0      	blx	r4
	UART_sercom_simpleWrite(SERCOM1, 'e');
     390:	1c28      	adds	r0, r5, #0
     392:	2165      	movs	r1, #101	; 0x65
     394:	47a0      	blx	r4
	UART_sercom_simpleWrite(SERCOM1, 'l');
     396:	1c28      	adds	r0, r5, #0
     398:	216c      	movs	r1, #108	; 0x6c
     39a:	47a0      	blx	r4
	UART_sercom_simpleWrite(SERCOM1, 'l');
     39c:	1c28      	adds	r0, r5, #0
     39e:	216c      	movs	r1, #108	; 0x6c
     3a0:	47a0      	blx	r4
	UART_sercom_simpleWrite(SERCOM1, 'o');
     3a2:	1c28      	adds	r0, r5, #0
     3a4:	216f      	movs	r1, #111	; 0x6f
     3a6:	47a0      	blx	r4
	UART_sercom_simpleWrite(SERCOM1, ' ');
     3a8:	1c28      	adds	r0, r5, #0
     3aa:	2120      	movs	r1, #32
     3ac:	47a0      	blx	r4
	UART_sercom_simpleWrite(SERCOM1, 'W');
     3ae:	1c28      	adds	r0, r5, #0
     3b0:	2157      	movs	r1, #87	; 0x57
     3b2:	47a0      	blx	r4
	UART_sercom_simpleWrite(SERCOM1, 'o');
     3b4:	1c28      	adds	r0, r5, #0
     3b6:	216f      	movs	r1, #111	; 0x6f
     3b8:	47a0      	blx	r4
	UART_sercom_simpleWrite(SERCOM1, 'r');
     3ba:	1c28      	adds	r0, r5, #0
     3bc:	2172      	movs	r1, #114	; 0x72
     3be:	47a0      	blx	r4
	UART_sercom_simpleWrite(SERCOM1, 'l');
     3c0:	1c28      	adds	r0, r5, #0
     3c2:	216c      	movs	r1, #108	; 0x6c
     3c4:	47a0      	blx	r4
	UART_sercom_simpleWrite(SERCOM1, 'd');
     3c6:	1c28      	adds	r0, r5, #0
     3c8:	2164      	movs	r1, #100	; 0x64
     3ca:	47a0      	blx	r4
	UART_sercom_simpleWrite(SERCOM1, '!');
     3cc:	1c28      	adds	r0, r5, #0
     3ce:	2121      	movs	r1, #33	; 0x21
     3d0:	47a0      	blx	r4
    while(!(sercom_module->USART.INTFLAG.reg & 1)); //wait UART module ready to receive data
    sercom_module->USART.DATA.reg = data;
    while(!(sercom_module->USART.INTFLAG.reg & 2)); //wait until TX complete;
}

int main(void)
     3d2:	e7fe      	b.n	3d2 <main+0x66>
     3d4:	000001d9 	.word	0x000001d9
     3d8:	000001e9 	.word	0x000001e9
     3dc:	41004400 	.word	0x41004400
     3e0:	00000255 	.word	0x00000255
     3e4:	42000c00 	.word	0x42000c00
     3e8:	00000355 	.word	0x00000355

000003ec <__aeabi_f2uiz>:
     3ec:	219e      	movs	r1, #158	; 0x9e
     3ee:	b510      	push	{r4, lr}
     3f0:	05c9      	lsls	r1, r1, #23
     3f2:	1c04      	adds	r4, r0, #0
     3f4:	f000 fc92 	bl	d1c <__aeabi_fcmpge>
     3f8:	2800      	cmp	r0, #0
     3fa:	d103      	bne.n	404 <STACK_SIZE+0x4>
     3fc:	1c20      	adds	r0, r4, #0
     3fe:	f000 fbf5 	bl	bec <__aeabi_f2iz>
     402:	bd10      	pop	{r4, pc}
     404:	219e      	movs	r1, #158	; 0x9e
     406:	1c20      	adds	r0, r4, #0
     408:	05c9      	lsls	r1, r1, #23
     40a:	f000 fa71 	bl	8f0 <__aeabi_fsub>
     40e:	f000 fbed 	bl	bec <__aeabi_f2iz>
     412:	2380      	movs	r3, #128	; 0x80
     414:	061b      	lsls	r3, r3, #24
     416:	469c      	mov	ip, r3
     418:	4460      	add	r0, ip
     41a:	e7f2      	b.n	402 <STACK_SIZE+0x2>

0000041c <__aeabi_fdiv>:
     41c:	b5f0      	push	{r4, r5, r6, r7, lr}
     41e:	4656      	mov	r6, sl
     420:	464d      	mov	r5, r9
     422:	465f      	mov	r7, fp
     424:	4644      	mov	r4, r8
     426:	b4f0      	push	{r4, r5, r6, r7}
     428:	0243      	lsls	r3, r0, #9
     42a:	0045      	lsls	r5, r0, #1
     42c:	0fc7      	lsrs	r7, r0, #31
     42e:	b083      	sub	sp, #12
     430:	468a      	mov	sl, r1
     432:	0a5c      	lsrs	r4, r3, #9
     434:	0e2e      	lsrs	r6, r5, #24
     436:	46b9      	mov	r9, r7
     438:	d041      	beq.n	4be <__aeabi_fdiv+0xa2>
     43a:	2eff      	cmp	r6, #255	; 0xff
     43c:	d026      	beq.n	48c <__aeabi_fdiv+0x70>
     43e:	2380      	movs	r3, #128	; 0x80
     440:	041b      	lsls	r3, r3, #16
     442:	4323      	orrs	r3, r4
     444:	00dc      	lsls	r4, r3, #3
     446:	2300      	movs	r3, #0
     448:	4698      	mov	r8, r3
     44a:	469b      	mov	fp, r3
     44c:	3e7f      	subs	r6, #127	; 0x7f
     44e:	4653      	mov	r3, sl
     450:	025b      	lsls	r3, r3, #9
     452:	0a5d      	lsrs	r5, r3, #9
     454:	4653      	mov	r3, sl
     456:	005a      	lsls	r2, r3, #1
     458:	0fdb      	lsrs	r3, r3, #31
     45a:	0e12      	lsrs	r2, r2, #24
     45c:	469a      	mov	sl, r3
     45e:	d039      	beq.n	4d4 <__aeabi_fdiv+0xb8>
     460:	2aff      	cmp	r2, #255	; 0xff
     462:	d033      	beq.n	4cc <__aeabi_fdiv+0xb0>
     464:	2380      	movs	r3, #128	; 0x80
     466:	041b      	lsls	r3, r3, #16
     468:	432b      	orrs	r3, r5
     46a:	00dd      	lsls	r5, r3, #3
     46c:	2300      	movs	r3, #0
     46e:	3a7f      	subs	r2, #127	; 0x7f
     470:	4651      	mov	r1, sl
     472:	1ab2      	subs	r2, r6, r2
     474:	4646      	mov	r6, r8
     476:	4079      	eors	r1, r7
     478:	1c08      	adds	r0, r1, #0
     47a:	9201      	str	r2, [sp, #4]
     47c:	431e      	orrs	r6, r3
     47e:	2e0f      	cmp	r6, #15
     480:	d900      	bls.n	484 <__aeabi_fdiv+0x68>
     482:	e076      	b.n	572 <__aeabi_fdiv+0x156>
     484:	4a7e      	ldr	r2, [pc, #504]	; (680 <__aeabi_fdiv+0x264>)
     486:	00b6      	lsls	r6, r6, #2
     488:	5996      	ldr	r6, [r2, r6]
     48a:	46b7      	mov	pc, r6
     48c:	2c00      	cmp	r4, #0
     48e:	d130      	bne.n	4f2 <__aeabi_fdiv+0xd6>
     490:	2308      	movs	r3, #8
     492:	4698      	mov	r8, r3
     494:	3b06      	subs	r3, #6
     496:	469b      	mov	fp, r3
     498:	e7d9      	b.n	44e <__aeabi_fdiv+0x32>
     49a:	2380      	movs	r3, #128	; 0x80
     49c:	2100      	movs	r1, #0
     49e:	03db      	lsls	r3, r3, #15
     4a0:	24ff      	movs	r4, #255	; 0xff
     4a2:	025b      	lsls	r3, r3, #9
     4a4:	05e4      	lsls	r4, r4, #23
     4a6:	0a5b      	lsrs	r3, r3, #9
     4a8:	07c9      	lsls	r1, r1, #31
     4aa:	4323      	orrs	r3, r4
     4ac:	430b      	orrs	r3, r1
     4ae:	1c18      	adds	r0, r3, #0
     4b0:	b003      	add	sp, #12
     4b2:	bc3c      	pop	{r2, r3, r4, r5}
     4b4:	4690      	mov	r8, r2
     4b6:	4699      	mov	r9, r3
     4b8:	46a2      	mov	sl, r4
     4ba:	46ab      	mov	fp, r5
     4bc:	bdf0      	pop	{r4, r5, r6, r7, pc}
     4be:	2c00      	cmp	r4, #0
     4c0:	d128      	bne.n	514 <__aeabi_fdiv+0xf8>
     4c2:	2304      	movs	r3, #4
     4c4:	4698      	mov	r8, r3
     4c6:	3b03      	subs	r3, #3
     4c8:	469b      	mov	fp, r3
     4ca:	e7c0      	b.n	44e <__aeabi_fdiv+0x32>
     4cc:	2d00      	cmp	r5, #0
     4ce:	d11f      	bne.n	510 <__aeabi_fdiv+0xf4>
     4d0:	2302      	movs	r3, #2
     4d2:	e002      	b.n	4da <__aeabi_fdiv+0xbe>
     4d4:	2d00      	cmp	r5, #0
     4d6:	d111      	bne.n	4fc <__aeabi_fdiv+0xe0>
     4d8:	2301      	movs	r3, #1
     4da:	1ab2      	subs	r2, r6, r2
     4dc:	4650      	mov	r0, sl
     4de:	4646      	mov	r6, r8
     4e0:	4078      	eors	r0, r7
     4e2:	9201      	str	r2, [sp, #4]
     4e4:	431e      	orrs	r6, r3
     4e6:	2e0f      	cmp	r6, #15
     4e8:	d827      	bhi.n	53a <__aeabi_fdiv+0x11e>
     4ea:	4966      	ldr	r1, [pc, #408]	; (684 <__aeabi_fdiv+0x268>)
     4ec:	00b6      	lsls	r6, r6, #2
     4ee:	5989      	ldr	r1, [r1, r6]
     4f0:	468f      	mov	pc, r1
     4f2:	230c      	movs	r3, #12
     4f4:	4698      	mov	r8, r3
     4f6:	3b09      	subs	r3, #9
     4f8:	469b      	mov	fp, r3
     4fa:	e7a8      	b.n	44e <__aeabi_fdiv+0x32>
     4fc:	1c28      	adds	r0, r5, #0
     4fe:	f000 fc17 	bl	d30 <__clzsi2>
     502:	2276      	movs	r2, #118	; 0x76
     504:	1f43      	subs	r3, r0, #5
     506:	4252      	negs	r2, r2
     508:	409d      	lsls	r5, r3
     50a:	1a12      	subs	r2, r2, r0
     50c:	2300      	movs	r3, #0
     50e:	e7af      	b.n	470 <__aeabi_fdiv+0x54>
     510:	2303      	movs	r3, #3
     512:	e7ad      	b.n	470 <__aeabi_fdiv+0x54>
     514:	1c20      	adds	r0, r4, #0
     516:	f000 fc0b 	bl	d30 <__clzsi2>
     51a:	1f43      	subs	r3, r0, #5
     51c:	409c      	lsls	r4, r3
     51e:	2376      	movs	r3, #118	; 0x76
     520:	425b      	negs	r3, r3
     522:	1a1e      	subs	r6, r3, r0
     524:	2300      	movs	r3, #0
     526:	4698      	mov	r8, r3
     528:	469b      	mov	fp, r3
     52a:	e790      	b.n	44e <__aeabi_fdiv+0x32>
     52c:	2500      	movs	r5, #0
     52e:	46d1      	mov	r9, sl
     530:	469b      	mov	fp, r3
     532:	465b      	mov	r3, fp
     534:	4648      	mov	r0, r9
     536:	2b02      	cmp	r3, #2
     538:	d16f      	bne.n	61a <__aeabi_fdiv+0x1fe>
     53a:	2101      	movs	r1, #1
     53c:	24ff      	movs	r4, #255	; 0xff
     53e:	4001      	ands	r1, r0
     540:	2300      	movs	r3, #0
     542:	e7ae      	b.n	4a2 <__aeabi_fdiv+0x86>
     544:	237e      	movs	r3, #126	; 0x7e
     546:	9a01      	ldr	r2, [sp, #4]
     548:	425b      	negs	r3, r3
     54a:	1a9b      	subs	r3, r3, r2
     54c:	2b1b      	cmp	r3, #27
     54e:	dd6d      	ble.n	62c <__aeabi_fdiv+0x210>
     550:	2101      	movs	r1, #1
     552:	464b      	mov	r3, r9
     554:	4019      	ands	r1, r3
     556:	2400      	movs	r4, #0
     558:	2300      	movs	r3, #0
     55a:	e7a2      	b.n	4a2 <__aeabi_fdiv+0x86>
     55c:	2380      	movs	r3, #128	; 0x80
     55e:	03db      	lsls	r3, r3, #15
     560:	421c      	tst	r4, r3
     562:	d149      	bne.n	5f8 <__aeabi_fdiv+0x1dc>
     564:	2380      	movs	r3, #128	; 0x80
     566:	03db      	lsls	r3, r3, #15
     568:	4323      	orrs	r3, r4
     56a:	025b      	lsls	r3, r3, #9
     56c:	0a5b      	lsrs	r3, r3, #9
     56e:	1c39      	adds	r1, r7, #0
     570:	e796      	b.n	4a0 <__aeabi_fdiv+0x84>
     572:	0163      	lsls	r3, r4, #5
     574:	016d      	lsls	r5, r5, #5
     576:	42ab      	cmp	r3, r5
     578:	d337      	bcc.n	5ea <__aeabi_fdiv+0x1ce>
     57a:	4689      	mov	r9, r1
     57c:	201a      	movs	r0, #26
     57e:	2101      	movs	r1, #1
     580:	1b5b      	subs	r3, r3, r5
     582:	2401      	movs	r4, #1
     584:	1c1e      	adds	r6, r3, #0
     586:	0049      	lsls	r1, r1, #1
     588:	005b      	lsls	r3, r3, #1
     58a:	2e00      	cmp	r6, #0
     58c:	db01      	blt.n	592 <__aeabi_fdiv+0x176>
     58e:	42ab      	cmp	r3, r5
     590:	d301      	bcc.n	596 <__aeabi_fdiv+0x17a>
     592:	1b5b      	subs	r3, r3, r5
     594:	4321      	orrs	r1, r4
     596:	3801      	subs	r0, #1
     598:	2800      	cmp	r0, #0
     59a:	d1f3      	bne.n	584 <__aeabi_fdiv+0x168>
     59c:	1e58      	subs	r0, r3, #1
     59e:	4183      	sbcs	r3, r0
     5a0:	430b      	orrs	r3, r1
     5a2:	1c1d      	adds	r5, r3, #0
     5a4:	9c01      	ldr	r4, [sp, #4]
     5a6:	347f      	adds	r4, #127	; 0x7f
     5a8:	2c00      	cmp	r4, #0
     5aa:	ddcb      	ble.n	544 <__aeabi_fdiv+0x128>
     5ac:	076b      	lsls	r3, r5, #29
     5ae:	d004      	beq.n	5ba <__aeabi_fdiv+0x19e>
     5b0:	230f      	movs	r3, #15
     5b2:	402b      	ands	r3, r5
     5b4:	2b04      	cmp	r3, #4
     5b6:	d000      	beq.n	5ba <__aeabi_fdiv+0x19e>
     5b8:	3504      	adds	r5, #4
     5ba:	012b      	lsls	r3, r5, #4
     5bc:	d504      	bpl.n	5c8 <__aeabi_fdiv+0x1ac>
     5be:	9a01      	ldr	r2, [sp, #4]
     5c0:	4b31      	ldr	r3, [pc, #196]	; (688 <__aeabi_fdiv+0x26c>)
     5c2:	3280      	adds	r2, #128	; 0x80
     5c4:	1c14      	adds	r4, r2, #0
     5c6:	401d      	ands	r5, r3
     5c8:	2cfe      	cmp	r4, #254	; 0xfe
     5ca:	dd07      	ble.n	5dc <__aeabi_fdiv+0x1c0>
     5cc:	464b      	mov	r3, r9
     5ce:	2101      	movs	r1, #1
     5d0:	24ff      	movs	r4, #255	; 0xff
     5d2:	4019      	ands	r1, r3
     5d4:	2300      	movs	r3, #0
     5d6:	e764      	b.n	4a2 <__aeabi_fdiv+0x86>
     5d8:	1c25      	adds	r5, r4, #0
     5da:	e7aa      	b.n	532 <__aeabi_fdiv+0x116>
     5dc:	2101      	movs	r1, #1
     5de:	464a      	mov	r2, r9
     5e0:	01ab      	lsls	r3, r5, #6
     5e2:	0a5b      	lsrs	r3, r3, #9
     5e4:	b2e4      	uxtb	r4, r4
     5e6:	4011      	ands	r1, r2
     5e8:	e75b      	b.n	4a2 <__aeabi_fdiv+0x86>
     5ea:	9a01      	ldr	r2, [sp, #4]
     5ec:	4689      	mov	r9, r1
     5ee:	3a01      	subs	r2, #1
     5f0:	9201      	str	r2, [sp, #4]
     5f2:	201b      	movs	r0, #27
     5f4:	2100      	movs	r1, #0
     5f6:	e7c4      	b.n	582 <__aeabi_fdiv+0x166>
     5f8:	421d      	tst	r5, r3
     5fa:	d007      	beq.n	60c <__aeabi_fdiv+0x1f0>
     5fc:	4323      	orrs	r3, r4
     5fe:	025b      	lsls	r3, r3, #9
     600:	0a5b      	lsrs	r3, r3, #9
     602:	1c39      	adds	r1, r7, #0
     604:	e74c      	b.n	4a0 <__aeabi_fdiv+0x84>
     606:	2500      	movs	r5, #0
     608:	0263      	lsls	r3, r4, #9
     60a:	d5ab      	bpl.n	564 <__aeabi_fdiv+0x148>
     60c:	2380      	movs	r3, #128	; 0x80
     60e:	03db      	lsls	r3, r3, #15
     610:	432b      	orrs	r3, r5
     612:	025b      	lsls	r3, r3, #9
     614:	0a5b      	lsrs	r3, r3, #9
     616:	4651      	mov	r1, sl
     618:	e742      	b.n	4a0 <__aeabi_fdiv+0x84>
     61a:	2b03      	cmp	r3, #3
     61c:	d025      	beq.n	66a <__aeabi_fdiv+0x24e>
     61e:	2b01      	cmp	r3, #1
     620:	d1c0      	bne.n	5a4 <__aeabi_fdiv+0x188>
     622:	2101      	movs	r1, #1
     624:	2400      	movs	r4, #0
     626:	4001      	ands	r1, r0
     628:	2300      	movs	r3, #0
     62a:	e73a      	b.n	4a2 <__aeabi_fdiv+0x86>
     62c:	1c29      	adds	r1, r5, #0
     62e:	40d9      	lsrs	r1, r3
     630:	1c2b      	adds	r3, r5, #0
     632:	9a01      	ldr	r2, [sp, #4]
     634:	329e      	adds	r2, #158	; 0x9e
     636:	4093      	lsls	r3, r2
     638:	1e5d      	subs	r5, r3, #1
     63a:	41ab      	sbcs	r3, r5
     63c:	430b      	orrs	r3, r1
     63e:	075a      	lsls	r2, r3, #29
     640:	d004      	beq.n	64c <__aeabi_fdiv+0x230>
     642:	220f      	movs	r2, #15
     644:	401a      	ands	r2, r3
     646:	2a04      	cmp	r2, #4
     648:	d000      	beq.n	64c <__aeabi_fdiv+0x230>
     64a:	3304      	adds	r3, #4
     64c:	015a      	lsls	r2, r3, #5
     64e:	d505      	bpl.n	65c <__aeabi_fdiv+0x240>
     650:	464b      	mov	r3, r9
     652:	2101      	movs	r1, #1
     654:	2401      	movs	r4, #1
     656:	4019      	ands	r1, r3
     658:	2300      	movs	r3, #0
     65a:	e722      	b.n	4a2 <__aeabi_fdiv+0x86>
     65c:	2101      	movs	r1, #1
     65e:	464a      	mov	r2, r9
     660:	019b      	lsls	r3, r3, #6
     662:	0a5b      	lsrs	r3, r3, #9
     664:	4011      	ands	r1, r2
     666:	2400      	movs	r4, #0
     668:	e71b      	b.n	4a2 <__aeabi_fdiv+0x86>
     66a:	2380      	movs	r3, #128	; 0x80
     66c:	2101      	movs	r1, #1
     66e:	464a      	mov	r2, r9
     670:	03db      	lsls	r3, r3, #15
     672:	432b      	orrs	r3, r5
     674:	025b      	lsls	r3, r3, #9
     676:	400a      	ands	r2, r1
     678:	0a5b      	lsrs	r3, r3, #9
     67a:	1c11      	adds	r1, r2, #0
     67c:	e710      	b.n	4a0 <__aeabi_fdiv+0x84>
     67e:	46c0      	nop			; (mov r8, r8)
     680:	00001058 	.word	0x00001058
     684:	00001098 	.word	0x00001098
     688:	f7ffffff 	.word	0xf7ffffff

0000068c <__aeabi_fmul>:
     68c:	b5f0      	push	{r4, r5, r6, r7, lr}
     68e:	465f      	mov	r7, fp
     690:	4656      	mov	r6, sl
     692:	464d      	mov	r5, r9
     694:	4644      	mov	r4, r8
     696:	b4f0      	push	{r4, r5, r6, r7}
     698:	0245      	lsls	r5, r0, #9
     69a:	0046      	lsls	r6, r0, #1
     69c:	0fc4      	lsrs	r4, r0, #31
     69e:	b083      	sub	sp, #12
     6a0:	1c0f      	adds	r7, r1, #0
     6a2:	0a6d      	lsrs	r5, r5, #9
     6a4:	0e36      	lsrs	r6, r6, #24
     6a6:	46a3      	mov	fp, r4
     6a8:	d045      	beq.n	736 <__aeabi_fmul+0xaa>
     6aa:	2eff      	cmp	r6, #255	; 0xff
     6ac:	d025      	beq.n	6fa <__aeabi_fmul+0x6e>
     6ae:	2380      	movs	r3, #128	; 0x80
     6b0:	041b      	lsls	r3, r3, #16
     6b2:	431d      	orrs	r5, r3
     6b4:	2300      	movs	r3, #0
     6b6:	469a      	mov	sl, r3
     6b8:	00ed      	lsls	r5, r5, #3
     6ba:	3e7f      	subs	r6, #127	; 0x7f
     6bc:	9301      	str	r3, [sp, #4]
     6be:	027b      	lsls	r3, r7, #9
     6c0:	0a5b      	lsrs	r3, r3, #9
     6c2:	4698      	mov	r8, r3
     6c4:	0078      	lsls	r0, r7, #1
     6c6:	0ffb      	lsrs	r3, r7, #31
     6c8:	0e00      	lsrs	r0, r0, #24
     6ca:	4699      	mov	r9, r3
     6cc:	d040      	beq.n	750 <__aeabi_fmul+0xc4>
     6ce:	28ff      	cmp	r0, #255	; 0xff
     6d0:	d038      	beq.n	744 <__aeabi_fmul+0xb8>
     6d2:	2380      	movs	r3, #128	; 0x80
     6d4:	4642      	mov	r2, r8
     6d6:	041b      	lsls	r3, r3, #16
     6d8:	4313      	orrs	r3, r2
     6da:	00db      	lsls	r3, r3, #3
     6dc:	4698      	mov	r8, r3
     6de:	2300      	movs	r3, #0
     6e0:	387f      	subs	r0, #127	; 0x7f
     6e2:	464a      	mov	r2, r9
     6e4:	9f01      	ldr	r7, [sp, #4]
     6e6:	1830      	adds	r0, r6, r0
     6e8:	4062      	eors	r2, r4
     6ea:	1c41      	adds	r1, r0, #1
     6ec:	431f      	orrs	r7, r3
     6ee:	2f0f      	cmp	r7, #15
     6f0:	d869      	bhi.n	7c6 <__aeabi_fmul+0x13a>
     6f2:	4e7d      	ldr	r6, [pc, #500]	; (8e8 <__aeabi_fmul+0x25c>)
     6f4:	00bf      	lsls	r7, r7, #2
     6f6:	59f6      	ldr	r6, [r6, r7]
     6f8:	46b7      	mov	pc, r6
     6fa:	2d00      	cmp	r5, #0
     6fc:	d145      	bne.n	78a <__aeabi_fmul+0xfe>
     6fe:	2308      	movs	r3, #8
     700:	9301      	str	r3, [sp, #4]
     702:	3b06      	subs	r3, #6
     704:	469a      	mov	sl, r3
     706:	e7da      	b.n	6be <__aeabi_fmul+0x32>
     708:	4693      	mov	fp, r2
     70a:	4653      	mov	r3, sl
     70c:	2b02      	cmp	r3, #2
     70e:	d12f      	bne.n	770 <__aeabi_fmul+0xe4>
     710:	465b      	mov	r3, fp
     712:	2401      	movs	r4, #1
     714:	2500      	movs	r5, #0
     716:	401c      	ands	r4, r3
     718:	23ff      	movs	r3, #255	; 0xff
     71a:	026d      	lsls	r5, r5, #9
     71c:	05db      	lsls	r3, r3, #23
     71e:	0a6d      	lsrs	r5, r5, #9
     720:	07e4      	lsls	r4, r4, #31
     722:	431d      	orrs	r5, r3
     724:	4325      	orrs	r5, r4
     726:	1c28      	adds	r0, r5, #0
     728:	b003      	add	sp, #12
     72a:	bc3c      	pop	{r2, r3, r4, r5}
     72c:	4690      	mov	r8, r2
     72e:	4699      	mov	r9, r3
     730:	46a2      	mov	sl, r4
     732:	46ab      	mov	fp, r5
     734:	bdf0      	pop	{r4, r5, r6, r7, pc}
     736:	2d00      	cmp	r5, #0
     738:	d12c      	bne.n	794 <__aeabi_fmul+0x108>
     73a:	2304      	movs	r3, #4
     73c:	9301      	str	r3, [sp, #4]
     73e:	3b03      	subs	r3, #3
     740:	469a      	mov	sl, r3
     742:	e7bc      	b.n	6be <__aeabi_fmul+0x32>
     744:	4643      	mov	r3, r8
     746:	425a      	negs	r2, r3
     748:	4153      	adcs	r3, r2
     74a:	2203      	movs	r2, #3
     74c:	1ad3      	subs	r3, r2, r3
     74e:	e7c8      	b.n	6e2 <__aeabi_fmul+0x56>
     750:	4642      	mov	r2, r8
     752:	2301      	movs	r3, #1
     754:	2a00      	cmp	r2, #0
     756:	d0c4      	beq.n	6e2 <__aeabi_fmul+0x56>
     758:	4640      	mov	r0, r8
     75a:	f000 fae9 	bl	d30 <__clzsi2>
     75e:	4642      	mov	r2, r8
     760:	1f43      	subs	r3, r0, #5
     762:	409a      	lsls	r2, r3
     764:	2376      	movs	r3, #118	; 0x76
     766:	425b      	negs	r3, r3
     768:	1a18      	subs	r0, r3, r0
     76a:	4690      	mov	r8, r2
     76c:	2300      	movs	r3, #0
     76e:	e7b8      	b.n	6e2 <__aeabi_fmul+0x56>
     770:	2b03      	cmp	r3, #3
     772:	d100      	bne.n	776 <__aeabi_fmul+0xea>
     774:	e0ad      	b.n	8d2 <__aeabi_fmul+0x246>
     776:	2b01      	cmp	r3, #1
     778:	d000      	beq.n	77c <__aeabi_fmul+0xf0>
     77a:	e08c      	b.n	896 <__aeabi_fmul+0x20a>
     77c:	465b      	mov	r3, fp
     77e:	4654      	mov	r4, sl
     780:	401c      	ands	r4, r3
     782:	b2e4      	uxtb	r4, r4
     784:	2300      	movs	r3, #0
     786:	2500      	movs	r5, #0
     788:	e7c7      	b.n	71a <__aeabi_fmul+0x8e>
     78a:	230c      	movs	r3, #12
     78c:	9301      	str	r3, [sp, #4]
     78e:	3b09      	subs	r3, #9
     790:	469a      	mov	sl, r3
     792:	e794      	b.n	6be <__aeabi_fmul+0x32>
     794:	1c28      	adds	r0, r5, #0
     796:	f000 facb 	bl	d30 <__clzsi2>
     79a:	2676      	movs	r6, #118	; 0x76
     79c:	1f43      	subs	r3, r0, #5
     79e:	409d      	lsls	r5, r3
     7a0:	2300      	movs	r3, #0
     7a2:	4276      	negs	r6, r6
     7a4:	1a36      	subs	r6, r6, r0
     7a6:	9301      	str	r3, [sp, #4]
     7a8:	469a      	mov	sl, r3
     7aa:	e788      	b.n	6be <__aeabi_fmul+0x32>
     7ac:	2580      	movs	r5, #128	; 0x80
     7ae:	2400      	movs	r4, #0
     7b0:	03ed      	lsls	r5, r5, #15
     7b2:	23ff      	movs	r3, #255	; 0xff
     7b4:	e7b1      	b.n	71a <__aeabi_fmul+0x8e>
     7b6:	4645      	mov	r5, r8
     7b8:	46cb      	mov	fp, r9
     7ba:	469a      	mov	sl, r3
     7bc:	e7a5      	b.n	70a <__aeabi_fmul+0x7e>
     7be:	4645      	mov	r5, r8
     7c0:	4693      	mov	fp, r2
     7c2:	469a      	mov	sl, r3
     7c4:	e7a1      	b.n	70a <__aeabi_fmul+0x7e>
     7c6:	4643      	mov	r3, r8
     7c8:	042c      	lsls	r4, r5, #16
     7ca:	0c1b      	lsrs	r3, r3, #16
     7cc:	469c      	mov	ip, r3
     7ce:	0c23      	lsrs	r3, r4, #16
     7d0:	4644      	mov	r4, r8
     7d2:	0426      	lsls	r6, r4, #16
     7d4:	1c1c      	adds	r4, r3, #0
     7d6:	0c36      	lsrs	r6, r6, #16
     7d8:	0c2f      	lsrs	r7, r5, #16
     7da:	4374      	muls	r4, r6
     7dc:	1c35      	adds	r5, r6, #0
     7de:	4666      	mov	r6, ip
     7e0:	437d      	muls	r5, r7
     7e2:	4373      	muls	r3, r6
     7e4:	4377      	muls	r7, r6
     7e6:	18eb      	adds	r3, r5, r3
     7e8:	0c26      	lsrs	r6, r4, #16
     7ea:	199e      	adds	r6, r3, r6
     7ec:	42b5      	cmp	r5, r6
     7ee:	d903      	bls.n	7f8 <__aeabi_fmul+0x16c>
     7f0:	2380      	movs	r3, #128	; 0x80
     7f2:	025b      	lsls	r3, r3, #9
     7f4:	469c      	mov	ip, r3
     7f6:	4467      	add	r7, ip
     7f8:	0424      	lsls	r4, r4, #16
     7fa:	0433      	lsls	r3, r6, #16
     7fc:	0c24      	lsrs	r4, r4, #16
     7fe:	191b      	adds	r3, r3, r4
     800:	019d      	lsls	r5, r3, #6
     802:	1e6c      	subs	r4, r5, #1
     804:	41a5      	sbcs	r5, r4
     806:	0e9b      	lsrs	r3, r3, #26
     808:	0c36      	lsrs	r6, r6, #16
     80a:	432b      	orrs	r3, r5
     80c:	19bd      	adds	r5, r7, r6
     80e:	01ad      	lsls	r5, r5, #6
     810:	431d      	orrs	r5, r3
     812:	012b      	lsls	r3, r5, #4
     814:	d504      	bpl.n	820 <__aeabi_fmul+0x194>
     816:	2301      	movs	r3, #1
     818:	0868      	lsrs	r0, r5, #1
     81a:	401d      	ands	r5, r3
     81c:	4305      	orrs	r5, r0
     81e:	1c08      	adds	r0, r1, #0
     820:	1c03      	adds	r3, r0, #0
     822:	337f      	adds	r3, #127	; 0x7f
     824:	2b00      	cmp	r3, #0
     826:	dd2c      	ble.n	882 <__aeabi_fmul+0x1f6>
     828:	0769      	lsls	r1, r5, #29
     82a:	d004      	beq.n	836 <__aeabi_fmul+0x1aa>
     82c:	210f      	movs	r1, #15
     82e:	4029      	ands	r1, r5
     830:	2904      	cmp	r1, #4
     832:	d000      	beq.n	836 <__aeabi_fmul+0x1aa>
     834:	3504      	adds	r5, #4
     836:	0129      	lsls	r1, r5, #4
     838:	d503      	bpl.n	842 <__aeabi_fmul+0x1b6>
     83a:	4b2c      	ldr	r3, [pc, #176]	; (8ec <__aeabi_fmul+0x260>)
     83c:	401d      	ands	r5, r3
     83e:	1c03      	adds	r3, r0, #0
     840:	3380      	adds	r3, #128	; 0x80
     842:	2bfe      	cmp	r3, #254	; 0xfe
     844:	dd17      	ble.n	876 <__aeabi_fmul+0x1ea>
     846:	2401      	movs	r4, #1
     848:	23ff      	movs	r3, #255	; 0xff
     84a:	4014      	ands	r4, r2
     84c:	2500      	movs	r5, #0
     84e:	e764      	b.n	71a <__aeabi_fmul+0x8e>
     850:	2080      	movs	r0, #128	; 0x80
     852:	03c0      	lsls	r0, r0, #15
     854:	4205      	tst	r5, r0
     856:	d009      	beq.n	86c <__aeabi_fmul+0x1e0>
     858:	4643      	mov	r3, r8
     85a:	4203      	tst	r3, r0
     85c:	d106      	bne.n	86c <__aeabi_fmul+0x1e0>
     85e:	4645      	mov	r5, r8
     860:	4305      	orrs	r5, r0
     862:	026d      	lsls	r5, r5, #9
     864:	0a6d      	lsrs	r5, r5, #9
     866:	464c      	mov	r4, r9
     868:	23ff      	movs	r3, #255	; 0xff
     86a:	e756      	b.n	71a <__aeabi_fmul+0x8e>
     86c:	4305      	orrs	r5, r0
     86e:	026d      	lsls	r5, r5, #9
     870:	0a6d      	lsrs	r5, r5, #9
     872:	23ff      	movs	r3, #255	; 0xff
     874:	e751      	b.n	71a <__aeabi_fmul+0x8e>
     876:	2401      	movs	r4, #1
     878:	01ad      	lsls	r5, r5, #6
     87a:	0a6d      	lsrs	r5, r5, #9
     87c:	b2db      	uxtb	r3, r3
     87e:	4014      	ands	r4, r2
     880:	e74b      	b.n	71a <__aeabi_fmul+0x8e>
     882:	237e      	movs	r3, #126	; 0x7e
     884:	425b      	negs	r3, r3
     886:	1a1b      	subs	r3, r3, r0
     888:	2b1b      	cmp	r3, #27
     88a:	dd07      	ble.n	89c <__aeabi_fmul+0x210>
     88c:	2401      	movs	r4, #1
     88e:	2300      	movs	r3, #0
     890:	4014      	ands	r4, r2
     892:	2500      	movs	r5, #0
     894:	e741      	b.n	71a <__aeabi_fmul+0x8e>
     896:	1c08      	adds	r0, r1, #0
     898:	465a      	mov	r2, fp
     89a:	e7c1      	b.n	820 <__aeabi_fmul+0x194>
     89c:	309e      	adds	r0, #158	; 0x9e
     89e:	1c29      	adds	r1, r5, #0
     8a0:	4085      	lsls	r5, r0
     8a2:	40d9      	lsrs	r1, r3
     8a4:	1e68      	subs	r0, r5, #1
     8a6:	4185      	sbcs	r5, r0
     8a8:	430d      	orrs	r5, r1
     8aa:	076b      	lsls	r3, r5, #29
     8ac:	d004      	beq.n	8b8 <__aeabi_fmul+0x22c>
     8ae:	230f      	movs	r3, #15
     8b0:	402b      	ands	r3, r5
     8b2:	2b04      	cmp	r3, #4
     8b4:	d000      	beq.n	8b8 <__aeabi_fmul+0x22c>
     8b6:	3504      	adds	r5, #4
     8b8:	016b      	lsls	r3, r5, #5
     8ba:	d504      	bpl.n	8c6 <__aeabi_fmul+0x23a>
     8bc:	2401      	movs	r4, #1
     8be:	2301      	movs	r3, #1
     8c0:	4014      	ands	r4, r2
     8c2:	2500      	movs	r5, #0
     8c4:	e729      	b.n	71a <__aeabi_fmul+0x8e>
     8c6:	2401      	movs	r4, #1
     8c8:	01ad      	lsls	r5, r5, #6
     8ca:	0a6d      	lsrs	r5, r5, #9
     8cc:	4014      	ands	r4, r2
     8ce:	2300      	movs	r3, #0
     8d0:	e723      	b.n	71a <__aeabi_fmul+0x8e>
     8d2:	2380      	movs	r3, #128	; 0x80
     8d4:	03db      	lsls	r3, r3, #15
     8d6:	431d      	orrs	r5, r3
     8d8:	2401      	movs	r4, #1
     8da:	465b      	mov	r3, fp
     8dc:	026d      	lsls	r5, r5, #9
     8de:	4023      	ands	r3, r4
     8e0:	1c1c      	adds	r4, r3, #0
     8e2:	0a6d      	lsrs	r5, r5, #9
     8e4:	23ff      	movs	r3, #255	; 0xff
     8e6:	e718      	b.n	71a <__aeabi_fmul+0x8e>
     8e8:	000010d8 	.word	0x000010d8
     8ec:	f7ffffff 	.word	0xf7ffffff

000008f0 <__aeabi_fsub>:
     8f0:	b5f8      	push	{r3, r4, r5, r6, r7, lr}
     8f2:	004a      	lsls	r2, r1, #1
     8f4:	0243      	lsls	r3, r0, #9
     8f6:	0044      	lsls	r4, r0, #1
     8f8:	024d      	lsls	r5, r1, #9
     8fa:	0fc0      	lsrs	r0, r0, #31
     8fc:	0e24      	lsrs	r4, r4, #24
     8fe:	1c06      	adds	r6, r0, #0
     900:	099b      	lsrs	r3, r3, #6
     902:	0e12      	lsrs	r2, r2, #24
     904:	0fc9      	lsrs	r1, r1, #31
     906:	09ad      	lsrs	r5, r5, #6
     908:	2aff      	cmp	r2, #255	; 0xff
     90a:	d100      	bne.n	90e <__aeabi_fsub+0x1e>
     90c:	e075      	b.n	9fa <__aeabi_fsub+0x10a>
     90e:	2701      	movs	r7, #1
     910:	4079      	eors	r1, r7
     912:	4288      	cmp	r0, r1
     914:	d050      	beq.n	9b8 <__aeabi_fsub+0xc8>
     916:	1aa0      	subs	r0, r4, r2
     918:	2800      	cmp	r0, #0
     91a:	dc00      	bgt.n	91e <__aeabi_fsub+0x2e>
     91c:	e08f      	b.n	a3e <__aeabi_fsub+0x14e>
     91e:	2a00      	cmp	r2, #0
     920:	d11e      	bne.n	960 <__aeabi_fsub+0x70>
     922:	2d00      	cmp	r5, #0
     924:	d000      	beq.n	928 <__aeabi_fsub+0x38>
     926:	e075      	b.n	a14 <__aeabi_fsub+0x124>
     928:	075a      	lsls	r2, r3, #29
     92a:	d004      	beq.n	936 <__aeabi_fsub+0x46>
     92c:	220f      	movs	r2, #15
     92e:	401a      	ands	r2, r3
     930:	2a04      	cmp	r2, #4
     932:	d000      	beq.n	936 <__aeabi_fsub+0x46>
     934:	3304      	adds	r3, #4
     936:	2280      	movs	r2, #128	; 0x80
     938:	2001      	movs	r0, #1
     93a:	04d2      	lsls	r2, r2, #19
     93c:	401a      	ands	r2, r3
     93e:	4030      	ands	r0, r6
     940:	2a00      	cmp	r2, #0
     942:	d032      	beq.n	9aa <__aeabi_fsub+0xba>
     944:	3401      	adds	r4, #1
     946:	2cff      	cmp	r4, #255	; 0xff
     948:	d100      	bne.n	94c <__aeabi_fsub+0x5c>
     94a:	e084      	b.n	a56 <__aeabi_fsub+0x166>
     94c:	019b      	lsls	r3, r3, #6
     94e:	0a5b      	lsrs	r3, r3, #9
     950:	b2e4      	uxtb	r4, r4
     952:	025b      	lsls	r3, r3, #9
     954:	05e4      	lsls	r4, r4, #23
     956:	0a5b      	lsrs	r3, r3, #9
     958:	4323      	orrs	r3, r4
     95a:	07c0      	lsls	r0, r0, #31
     95c:	4318      	orrs	r0, r3
     95e:	bdf8      	pop	{r3, r4, r5, r6, r7, pc}
     960:	2cff      	cmp	r4, #255	; 0xff
     962:	d0e1      	beq.n	928 <__aeabi_fsub+0x38>
     964:	2280      	movs	r2, #128	; 0x80
     966:	04d2      	lsls	r2, r2, #19
     968:	4315      	orrs	r5, r2
     96a:	281b      	cmp	r0, #27
     96c:	dd7a      	ble.n	a64 <__aeabi_fsub+0x174>
     96e:	2501      	movs	r5, #1
     970:	1b5b      	subs	r3, r3, r5
     972:	015a      	lsls	r2, r3, #5
     974:	d55d      	bpl.n	a32 <__aeabi_fsub+0x142>
     976:	019b      	lsls	r3, r3, #6
     978:	099f      	lsrs	r7, r3, #6
     97a:	1c38      	adds	r0, r7, #0
     97c:	f000 f9d8 	bl	d30 <__clzsi2>
     980:	3805      	subs	r0, #5
     982:	4087      	lsls	r7, r0
     984:	4284      	cmp	r4, r0
     986:	dc69      	bgt.n	a5c <__aeabi_fsub+0x16c>
     988:	1b00      	subs	r0, r0, r4
     98a:	241f      	movs	r4, #31
     98c:	1c3a      	adds	r2, r7, #0
     98e:	1c43      	adds	r3, r0, #1
     990:	1a20      	subs	r0, r4, r0
     992:	40da      	lsrs	r2, r3
     994:	4087      	lsls	r7, r0
     996:	1c13      	adds	r3, r2, #0
     998:	1e7c      	subs	r4, r7, #1
     99a:	41a7      	sbcs	r7, r4
     99c:	2400      	movs	r4, #0
     99e:	433b      	orrs	r3, r7
     9a0:	e7c2      	b.n	928 <__aeabi_fsub+0x38>
     9a2:	1e13      	subs	r3, r2, #0
     9a4:	d145      	bne.n	a32 <__aeabi_fsub+0x142>
     9a6:	2300      	movs	r3, #0
     9a8:	2000      	movs	r0, #0
     9aa:	08db      	lsrs	r3, r3, #3
     9ac:	2cff      	cmp	r4, #255	; 0xff
     9ae:	d028      	beq.n	a02 <__aeabi_fsub+0x112>
     9b0:	025b      	lsls	r3, r3, #9
     9b2:	0a5b      	lsrs	r3, r3, #9
     9b4:	b2e4      	uxtb	r4, r4
     9b6:	e7cc      	b.n	952 <__aeabi_fsub+0x62>
     9b8:	1aa1      	subs	r1, r4, r2
     9ba:	2900      	cmp	r1, #0
     9bc:	dd5b      	ble.n	a76 <__aeabi_fsub+0x186>
     9be:	2a00      	cmp	r2, #0
     9c0:	d02e      	beq.n	a20 <__aeabi_fsub+0x130>
     9c2:	2cff      	cmp	r4, #255	; 0xff
     9c4:	d0b0      	beq.n	928 <__aeabi_fsub+0x38>
     9c6:	2280      	movs	r2, #128	; 0x80
     9c8:	04d2      	lsls	r2, r2, #19
     9ca:	4315      	orrs	r5, r2
     9cc:	291b      	cmp	r1, #27
     9ce:	dc74      	bgt.n	aba <__aeabi_fsub+0x1ca>
     9d0:	1c2f      	adds	r7, r5, #0
     9d2:	2220      	movs	r2, #32
     9d4:	40cf      	lsrs	r7, r1
     9d6:	1a51      	subs	r1, r2, r1
     9d8:	408d      	lsls	r5, r1
     9da:	1e69      	subs	r1, r5, #1
     9dc:	418d      	sbcs	r5, r1
     9de:	433d      	orrs	r5, r7
     9e0:	195b      	adds	r3, r3, r5
     9e2:	015a      	lsls	r2, r3, #5
     9e4:	d525      	bpl.n	a32 <__aeabi_fsub+0x142>
     9e6:	3401      	adds	r4, #1
     9e8:	2cff      	cmp	r4, #255	; 0xff
     9ea:	d074      	beq.n	ad6 <__aeabi_fsub+0x1e6>
     9ec:	2101      	movs	r1, #1
     9ee:	4a7e      	ldr	r2, [pc, #504]	; (be8 <__aeabi_fsub+0x2f8>)
     9f0:	4019      	ands	r1, r3
     9f2:	4013      	ands	r3, r2
     9f4:	085b      	lsrs	r3, r3, #1
     9f6:	430b      	orrs	r3, r1
     9f8:	e796      	b.n	928 <__aeabi_fsub+0x38>
     9fa:	2d00      	cmp	r5, #0
     9fc:	d000      	beq.n	a00 <__aeabi_fsub+0x110>
     9fe:	e788      	b.n	912 <__aeabi_fsub+0x22>
     a00:	e785      	b.n	90e <__aeabi_fsub+0x1e>
     a02:	2b00      	cmp	r3, #0
     a04:	d027      	beq.n	a56 <__aeabi_fsub+0x166>
     a06:	2280      	movs	r2, #128	; 0x80
     a08:	03d2      	lsls	r2, r2, #15
     a0a:	4313      	orrs	r3, r2
     a0c:	025b      	lsls	r3, r3, #9
     a0e:	0a5b      	lsrs	r3, r3, #9
     a10:	24ff      	movs	r4, #255	; 0xff
     a12:	e79e      	b.n	952 <__aeabi_fsub+0x62>
     a14:	3801      	subs	r0, #1
     a16:	2800      	cmp	r0, #0
     a18:	d0aa      	beq.n	970 <__aeabi_fsub+0x80>
     a1a:	2cff      	cmp	r4, #255	; 0xff
     a1c:	d1a5      	bne.n	96a <__aeabi_fsub+0x7a>
     a1e:	e783      	b.n	928 <__aeabi_fsub+0x38>
     a20:	2d00      	cmp	r5, #0
     a22:	d100      	bne.n	a26 <__aeabi_fsub+0x136>
     a24:	e780      	b.n	928 <__aeabi_fsub+0x38>
     a26:	3901      	subs	r1, #1
     a28:	2900      	cmp	r1, #0
     a2a:	d0d9      	beq.n	9e0 <__aeabi_fsub+0xf0>
     a2c:	2cff      	cmp	r4, #255	; 0xff
     a2e:	d1cd      	bne.n	9cc <__aeabi_fsub+0xdc>
     a30:	e77a      	b.n	928 <__aeabi_fsub+0x38>
     a32:	075a      	lsls	r2, r3, #29
     a34:	d000      	beq.n	a38 <__aeabi_fsub+0x148>
     a36:	e779      	b.n	92c <__aeabi_fsub+0x3c>
     a38:	2001      	movs	r0, #1
     a3a:	4030      	ands	r0, r6
     a3c:	e7b5      	b.n	9aa <__aeabi_fsub+0xba>
     a3e:	2800      	cmp	r0, #0
     a40:	d125      	bne.n	a8e <__aeabi_fsub+0x19e>
     a42:	1c62      	adds	r2, r4, #1
     a44:	b2d2      	uxtb	r2, r2
     a46:	2a01      	cmp	r2, #1
     a48:	dd55      	ble.n	af6 <__aeabi_fsub+0x206>
     a4a:	1b5f      	subs	r7, r3, r5
     a4c:	017a      	lsls	r2, r7, #5
     a4e:	d52d      	bpl.n	aac <__aeabi_fsub+0x1bc>
     a50:	1aef      	subs	r7, r5, r3
     a52:	1c0e      	adds	r6, r1, #0
     a54:	e791      	b.n	97a <__aeabi_fsub+0x8a>
     a56:	24ff      	movs	r4, #255	; 0xff
     a58:	2300      	movs	r3, #0
     a5a:	e77a      	b.n	952 <__aeabi_fsub+0x62>
     a5c:	4b62      	ldr	r3, [pc, #392]	; (be8 <__aeabi_fsub+0x2f8>)
     a5e:	1a24      	subs	r4, r4, r0
     a60:	403b      	ands	r3, r7
     a62:	e761      	b.n	928 <__aeabi_fsub+0x38>
     a64:	1c29      	adds	r1, r5, #0
     a66:	2220      	movs	r2, #32
     a68:	40c1      	lsrs	r1, r0
     a6a:	1a10      	subs	r0, r2, r0
     a6c:	4085      	lsls	r5, r0
     a6e:	1e68      	subs	r0, r5, #1
     a70:	4185      	sbcs	r5, r0
     a72:	430d      	orrs	r5, r1
     a74:	e77c      	b.n	970 <__aeabi_fsub+0x80>
     a76:	2900      	cmp	r1, #0
     a78:	d146      	bne.n	b08 <__aeabi_fsub+0x218>
     a7a:	1c62      	adds	r2, r4, #1
     a7c:	b2d1      	uxtb	r1, r2
     a7e:	2901      	cmp	r1, #1
     a80:	dd2b      	ble.n	ada <__aeabi_fsub+0x1ea>
     a82:	2aff      	cmp	r2, #255	; 0xff
     a84:	d026      	beq.n	ad4 <__aeabi_fsub+0x1e4>
     a86:	18eb      	adds	r3, r5, r3
     a88:	085b      	lsrs	r3, r3, #1
     a8a:	1c14      	adds	r4, r2, #0
     a8c:	e74c      	b.n	928 <__aeabi_fsub+0x38>
     a8e:	2c00      	cmp	r4, #0
     a90:	d015      	beq.n	abe <__aeabi_fsub+0x1ce>
     a92:	2aff      	cmp	r2, #255	; 0xff
     a94:	d01a      	beq.n	acc <__aeabi_fsub+0x1dc>
     a96:	2480      	movs	r4, #128	; 0x80
     a98:	04e4      	lsls	r4, r4, #19
     a9a:	4240      	negs	r0, r0
     a9c:	4323      	orrs	r3, r4
     a9e:	281b      	cmp	r0, #27
     aa0:	dd4d      	ble.n	b3e <__aeabi_fsub+0x24e>
     aa2:	2301      	movs	r3, #1
     aa4:	1aeb      	subs	r3, r5, r3
     aa6:	1c14      	adds	r4, r2, #0
     aa8:	1c0e      	adds	r6, r1, #0
     aaa:	e762      	b.n	972 <__aeabi_fsub+0x82>
     aac:	2f00      	cmp	r7, #0
     aae:	d000      	beq.n	ab2 <__aeabi_fsub+0x1c2>
     ab0:	e763      	b.n	97a <__aeabi_fsub+0x8a>
     ab2:	2300      	movs	r3, #0
     ab4:	2000      	movs	r0, #0
     ab6:	2400      	movs	r4, #0
     ab8:	e777      	b.n	9aa <__aeabi_fsub+0xba>
     aba:	2501      	movs	r5, #1
     abc:	e790      	b.n	9e0 <__aeabi_fsub+0xf0>
     abe:	2b00      	cmp	r3, #0
     ac0:	d039      	beq.n	b36 <__aeabi_fsub+0x246>
     ac2:	43c0      	mvns	r0, r0
     ac4:	2800      	cmp	r0, #0
     ac6:	d0ed      	beq.n	aa4 <__aeabi_fsub+0x1b4>
     ac8:	2aff      	cmp	r2, #255	; 0xff
     aca:	d1e8      	bne.n	a9e <__aeabi_fsub+0x1ae>
     acc:	1c2b      	adds	r3, r5, #0
     ace:	24ff      	movs	r4, #255	; 0xff
     ad0:	1c0e      	adds	r6, r1, #0
     ad2:	e729      	b.n	928 <__aeabi_fsub+0x38>
     ad4:	24ff      	movs	r4, #255	; 0xff
     ad6:	2300      	movs	r3, #0
     ad8:	e767      	b.n	9aa <__aeabi_fsub+0xba>
     ada:	2c00      	cmp	r4, #0
     adc:	d15a      	bne.n	b94 <__aeabi_fsub+0x2a4>
     ade:	2b00      	cmp	r3, #0
     ae0:	d07f      	beq.n	be2 <__aeabi_fsub+0x2f2>
     ae2:	2d00      	cmp	r5, #0
     ae4:	d100      	bne.n	ae8 <__aeabi_fsub+0x1f8>
     ae6:	e71f      	b.n	928 <__aeabi_fsub+0x38>
     ae8:	195b      	adds	r3, r3, r5
     aea:	015a      	lsls	r2, r3, #5
     aec:	d5a1      	bpl.n	a32 <__aeabi_fsub+0x142>
     aee:	4a3e      	ldr	r2, [pc, #248]	; (be8 <__aeabi_fsub+0x2f8>)
     af0:	3401      	adds	r4, #1
     af2:	4013      	ands	r3, r2
     af4:	e718      	b.n	928 <__aeabi_fsub+0x38>
     af6:	2c00      	cmp	r4, #0
     af8:	d115      	bne.n	b26 <__aeabi_fsub+0x236>
     afa:	2b00      	cmp	r3, #0
     afc:	d12f      	bne.n	b5e <__aeabi_fsub+0x26e>
     afe:	2d00      	cmp	r5, #0
     b00:	d05e      	beq.n	bc0 <__aeabi_fsub+0x2d0>
     b02:	1c2b      	adds	r3, r5, #0
     b04:	1c0e      	adds	r6, r1, #0
     b06:	e70f      	b.n	928 <__aeabi_fsub+0x38>
     b08:	2c00      	cmp	r4, #0
     b0a:	d121      	bne.n	b50 <__aeabi_fsub+0x260>
     b0c:	2b00      	cmp	r3, #0
     b0e:	d054      	beq.n	bba <__aeabi_fsub+0x2ca>
     b10:	43c9      	mvns	r1, r1
     b12:	2900      	cmp	r1, #0
     b14:	d004      	beq.n	b20 <__aeabi_fsub+0x230>
     b16:	2aff      	cmp	r2, #255	; 0xff
     b18:	d04c      	beq.n	bb4 <__aeabi_fsub+0x2c4>
     b1a:	291b      	cmp	r1, #27
     b1c:	dd58      	ble.n	bd0 <__aeabi_fsub+0x2e0>
     b1e:	2301      	movs	r3, #1
     b20:	195b      	adds	r3, r3, r5
     b22:	1c14      	adds	r4, r2, #0
     b24:	e75d      	b.n	9e2 <__aeabi_fsub+0xf2>
     b26:	2b00      	cmp	r3, #0
     b28:	d123      	bne.n	b72 <__aeabi_fsub+0x282>
     b2a:	2d00      	cmp	r5, #0
     b2c:	d04b      	beq.n	bc6 <__aeabi_fsub+0x2d6>
     b2e:	1c2b      	adds	r3, r5, #0
     b30:	1c0e      	adds	r6, r1, #0
     b32:	24ff      	movs	r4, #255	; 0xff
     b34:	e6f8      	b.n	928 <__aeabi_fsub+0x38>
     b36:	1c2b      	adds	r3, r5, #0
     b38:	1c14      	adds	r4, r2, #0
     b3a:	1c0e      	adds	r6, r1, #0
     b3c:	e6f4      	b.n	928 <__aeabi_fsub+0x38>
     b3e:	1c1e      	adds	r6, r3, #0
     b40:	2420      	movs	r4, #32
     b42:	40c6      	lsrs	r6, r0
     b44:	1a20      	subs	r0, r4, r0
     b46:	4083      	lsls	r3, r0
     b48:	1e58      	subs	r0, r3, #1
     b4a:	4183      	sbcs	r3, r0
     b4c:	4333      	orrs	r3, r6
     b4e:	e7a9      	b.n	aa4 <__aeabi_fsub+0x1b4>
     b50:	2aff      	cmp	r2, #255	; 0xff
     b52:	d02f      	beq.n	bb4 <__aeabi_fsub+0x2c4>
     b54:	2480      	movs	r4, #128	; 0x80
     b56:	04e4      	lsls	r4, r4, #19
     b58:	4249      	negs	r1, r1
     b5a:	4323      	orrs	r3, r4
     b5c:	e7dd      	b.n	b1a <__aeabi_fsub+0x22a>
     b5e:	2d00      	cmp	r5, #0
     b60:	d100      	bne.n	b64 <__aeabi_fsub+0x274>
     b62:	e6e1      	b.n	928 <__aeabi_fsub+0x38>
     b64:	1b5a      	subs	r2, r3, r5
     b66:	0150      	lsls	r0, r2, #5
     b68:	d400      	bmi.n	b6c <__aeabi_fsub+0x27c>
     b6a:	e71a      	b.n	9a2 <__aeabi_fsub+0xb2>
     b6c:	1aeb      	subs	r3, r5, r3
     b6e:	1c0e      	adds	r6, r1, #0
     b70:	e6da      	b.n	928 <__aeabi_fsub+0x38>
     b72:	24ff      	movs	r4, #255	; 0xff
     b74:	2d00      	cmp	r5, #0
     b76:	d100      	bne.n	b7a <__aeabi_fsub+0x28a>
     b78:	e6d6      	b.n	928 <__aeabi_fsub+0x38>
     b7a:	2280      	movs	r2, #128	; 0x80
     b7c:	08db      	lsrs	r3, r3, #3
     b7e:	03d2      	lsls	r2, r2, #15
     b80:	4213      	tst	r3, r2
     b82:	d004      	beq.n	b8e <__aeabi_fsub+0x29e>
     b84:	08ed      	lsrs	r5, r5, #3
     b86:	4215      	tst	r5, r2
     b88:	d101      	bne.n	b8e <__aeabi_fsub+0x29e>
     b8a:	1c2b      	adds	r3, r5, #0
     b8c:	1c0e      	adds	r6, r1, #0
     b8e:	00db      	lsls	r3, r3, #3
     b90:	24ff      	movs	r4, #255	; 0xff
     b92:	e6c9      	b.n	928 <__aeabi_fsub+0x38>
     b94:	2b00      	cmp	r3, #0
     b96:	d00d      	beq.n	bb4 <__aeabi_fsub+0x2c4>
     b98:	24ff      	movs	r4, #255	; 0xff
     b9a:	2d00      	cmp	r5, #0
     b9c:	d100      	bne.n	ba0 <__aeabi_fsub+0x2b0>
     b9e:	e6c3      	b.n	928 <__aeabi_fsub+0x38>
     ba0:	2280      	movs	r2, #128	; 0x80
     ba2:	08db      	lsrs	r3, r3, #3
     ba4:	03d2      	lsls	r2, r2, #15
     ba6:	4213      	tst	r3, r2
     ba8:	d0f1      	beq.n	b8e <__aeabi_fsub+0x29e>
     baa:	08ed      	lsrs	r5, r5, #3
     bac:	4215      	tst	r5, r2
     bae:	d1ee      	bne.n	b8e <__aeabi_fsub+0x29e>
     bb0:	1c2b      	adds	r3, r5, #0
     bb2:	e7ec      	b.n	b8e <__aeabi_fsub+0x29e>
     bb4:	1c2b      	adds	r3, r5, #0
     bb6:	24ff      	movs	r4, #255	; 0xff
     bb8:	e6b6      	b.n	928 <__aeabi_fsub+0x38>
     bba:	1c2b      	adds	r3, r5, #0
     bbc:	1c14      	adds	r4, r2, #0
     bbe:	e6b3      	b.n	928 <__aeabi_fsub+0x38>
     bc0:	1c23      	adds	r3, r4, #0
     bc2:	2000      	movs	r0, #0
     bc4:	e6f1      	b.n	9aa <__aeabi_fsub+0xba>
     bc6:	2380      	movs	r3, #128	; 0x80
     bc8:	2000      	movs	r0, #0
     bca:	049b      	lsls	r3, r3, #18
     bcc:	24ff      	movs	r4, #255	; 0xff
     bce:	e6ec      	b.n	9aa <__aeabi_fsub+0xba>
     bd0:	1c1f      	adds	r7, r3, #0
     bd2:	2420      	movs	r4, #32
     bd4:	40cf      	lsrs	r7, r1
     bd6:	1a61      	subs	r1, r4, r1
     bd8:	408b      	lsls	r3, r1
     bda:	1e59      	subs	r1, r3, #1
     bdc:	418b      	sbcs	r3, r1
     bde:	433b      	orrs	r3, r7
     be0:	e79e      	b.n	b20 <__aeabi_fsub+0x230>
     be2:	1c2b      	adds	r3, r5, #0
     be4:	e6a0      	b.n	928 <__aeabi_fsub+0x38>
     be6:	46c0      	nop			; (mov r8, r8)
     be8:	fbffffff 	.word	0xfbffffff

00000bec <__aeabi_f2iz>:
     bec:	0242      	lsls	r2, r0, #9
     bee:	0a51      	lsrs	r1, r2, #9
     bf0:	0042      	lsls	r2, r0, #1
     bf2:	0fc3      	lsrs	r3, r0, #31
     bf4:	0e12      	lsrs	r2, r2, #24
     bf6:	2000      	movs	r0, #0
     bf8:	2a7e      	cmp	r2, #126	; 0x7e
     bfa:	dd0d      	ble.n	c18 <__aeabi_f2iz+0x2c>
     bfc:	2a9d      	cmp	r2, #157	; 0x9d
     bfe:	dc0c      	bgt.n	c1a <__aeabi_f2iz+0x2e>
     c00:	2080      	movs	r0, #128	; 0x80
     c02:	0400      	lsls	r0, r0, #16
     c04:	4301      	orrs	r1, r0
     c06:	2a95      	cmp	r2, #149	; 0x95
     c08:	dc0a      	bgt.n	c20 <__aeabi_f2iz+0x34>
     c0a:	2096      	movs	r0, #150	; 0x96
     c0c:	1a82      	subs	r2, r0, r2
     c0e:	40d1      	lsrs	r1, r2
     c10:	1c0a      	adds	r2, r1, #0
     c12:	4258      	negs	r0, r3
     c14:	4042      	eors	r2, r0
     c16:	18d0      	adds	r0, r2, r3
     c18:	4770      	bx	lr
     c1a:	4a03      	ldr	r2, [pc, #12]	; (c28 <__aeabi_f2iz+0x3c>)
     c1c:	1898      	adds	r0, r3, r2
     c1e:	e7fb      	b.n	c18 <__aeabi_f2iz+0x2c>
     c20:	3a96      	subs	r2, #150	; 0x96
     c22:	4091      	lsls	r1, r2
     c24:	1c0a      	adds	r2, r1, #0
     c26:	e7f4      	b.n	c12 <__aeabi_f2iz+0x26>
     c28:	7fffffff 	.word	0x7fffffff

00000c2c <__aeabi_ui2f>:
     c2c:	b510      	push	{r4, lr}
     c2e:	1e04      	subs	r4, r0, #0
     c30:	d035      	beq.n	c9e <__aeabi_ui2f+0x72>
     c32:	f000 f87d 	bl	d30 <__clzsi2>
     c36:	219e      	movs	r1, #158	; 0x9e
     c38:	1a09      	subs	r1, r1, r0
     c3a:	2996      	cmp	r1, #150	; 0x96
     c3c:	dc09      	bgt.n	c52 <__aeabi_ui2f+0x26>
     c3e:	2808      	cmp	r0, #8
     c40:	dd30      	ble.n	ca4 <__aeabi_ui2f+0x78>
     c42:	1c02      	adds	r2, r0, #0
     c44:	1c23      	adds	r3, r4, #0
     c46:	3a08      	subs	r2, #8
     c48:	4093      	lsls	r3, r2
     c4a:	025b      	lsls	r3, r3, #9
     c4c:	0a5b      	lsrs	r3, r3, #9
     c4e:	b2c8      	uxtb	r0, r1
     c50:	e020      	b.n	c94 <__aeabi_ui2f+0x68>
     c52:	2999      	cmp	r1, #153	; 0x99
     c54:	dd0c      	ble.n	c70 <__aeabi_ui2f+0x44>
     c56:	2205      	movs	r2, #5
     c58:	1c23      	adds	r3, r4, #0
     c5a:	1a12      	subs	r2, r2, r0
     c5c:	40d3      	lsrs	r3, r2
     c5e:	1c1a      	adds	r2, r3, #0
     c60:	1c03      	adds	r3, r0, #0
     c62:	331b      	adds	r3, #27
     c64:	409c      	lsls	r4, r3
     c66:	1c23      	adds	r3, r4, #0
     c68:	1e5c      	subs	r4, r3, #1
     c6a:	41a3      	sbcs	r3, r4
     c6c:	4313      	orrs	r3, r2
     c6e:	1c1c      	adds	r4, r3, #0
     c70:	2805      	cmp	r0, #5
     c72:	dd01      	ble.n	c78 <__aeabi_ui2f+0x4c>
     c74:	1f43      	subs	r3, r0, #5
     c76:	409c      	lsls	r4, r3
     c78:	4b0f      	ldr	r3, [pc, #60]	; (cb8 <__aeabi_ui2f+0x8c>)
     c7a:	4023      	ands	r3, r4
     c7c:	0762      	lsls	r2, r4, #29
     c7e:	d004      	beq.n	c8a <__aeabi_ui2f+0x5e>
     c80:	220f      	movs	r2, #15
     c82:	4014      	ands	r4, r2
     c84:	2c04      	cmp	r4, #4
     c86:	d000      	beq.n	c8a <__aeabi_ui2f+0x5e>
     c88:	3304      	adds	r3, #4
     c8a:	015a      	lsls	r2, r3, #5
     c8c:	d40e      	bmi.n	cac <__aeabi_ui2f+0x80>
     c8e:	019b      	lsls	r3, r3, #6
     c90:	0a5b      	lsrs	r3, r3, #9
     c92:	b2c8      	uxtb	r0, r1
     c94:	025b      	lsls	r3, r3, #9
     c96:	0a5b      	lsrs	r3, r3, #9
     c98:	05c0      	lsls	r0, r0, #23
     c9a:	4318      	orrs	r0, r3
     c9c:	bd10      	pop	{r4, pc}
     c9e:	2000      	movs	r0, #0
     ca0:	2300      	movs	r3, #0
     ca2:	e7f7      	b.n	c94 <__aeabi_ui2f+0x68>
     ca4:	0263      	lsls	r3, r4, #9
     ca6:	0a5b      	lsrs	r3, r3, #9
     ca8:	b2c8      	uxtb	r0, r1
     caa:	e7f3      	b.n	c94 <__aeabi_ui2f+0x68>
     cac:	219f      	movs	r1, #159	; 0x9f
     cae:	4a02      	ldr	r2, [pc, #8]	; (cb8 <__aeabi_ui2f+0x8c>)
     cb0:	1a09      	subs	r1, r1, r0
     cb2:	4013      	ands	r3, r2
     cb4:	e7eb      	b.n	c8e <__aeabi_ui2f+0x62>
     cb6:	46c0      	nop			; (mov r8, r8)
     cb8:	fbffffff 	.word	0xfbffffff

00000cbc <__aeabi_cfrcmple>:
     cbc:	4684      	mov	ip, r0
     cbe:	1c08      	adds	r0, r1, #0
     cc0:	4661      	mov	r1, ip
     cc2:	e7ff      	b.n	cc4 <__aeabi_cfcmpeq>

00000cc4 <__aeabi_cfcmpeq>:
     cc4:	b51f      	push	{r0, r1, r2, r3, r4, lr}
     cc6:	f000 f8c5 	bl	e54 <__lesf2>
     cca:	2800      	cmp	r0, #0
     ccc:	d401      	bmi.n	cd2 <__aeabi_cfcmpeq+0xe>
     cce:	2100      	movs	r1, #0
     cd0:	42c8      	cmn	r0, r1
     cd2:	bd1f      	pop	{r0, r1, r2, r3, r4, pc}

00000cd4 <__aeabi_fcmpeq>:
     cd4:	b510      	push	{r4, lr}
     cd6:	f000 f849 	bl	d6c <__eqsf2>
     cda:	4240      	negs	r0, r0
     cdc:	3001      	adds	r0, #1
     cde:	bd10      	pop	{r4, pc}

00000ce0 <__aeabi_fcmplt>:
     ce0:	b510      	push	{r4, lr}
     ce2:	f000 f8b7 	bl	e54 <__lesf2>
     ce6:	2800      	cmp	r0, #0
     ce8:	db01      	blt.n	cee <__aeabi_fcmplt+0xe>
     cea:	2000      	movs	r0, #0
     cec:	bd10      	pop	{r4, pc}
     cee:	2001      	movs	r0, #1
     cf0:	bd10      	pop	{r4, pc}
     cf2:	46c0      	nop			; (mov r8, r8)

00000cf4 <__aeabi_fcmple>:
     cf4:	b510      	push	{r4, lr}
     cf6:	f000 f8ad 	bl	e54 <__lesf2>
     cfa:	2800      	cmp	r0, #0
     cfc:	dd01      	ble.n	d02 <__aeabi_fcmple+0xe>
     cfe:	2000      	movs	r0, #0
     d00:	bd10      	pop	{r4, pc}
     d02:	2001      	movs	r0, #1
     d04:	bd10      	pop	{r4, pc}
     d06:	46c0      	nop			; (mov r8, r8)

00000d08 <__aeabi_fcmpgt>:
     d08:	b510      	push	{r4, lr}
     d0a:	f000 f859 	bl	dc0 <__gesf2>
     d0e:	2800      	cmp	r0, #0
     d10:	dc01      	bgt.n	d16 <__aeabi_fcmpgt+0xe>
     d12:	2000      	movs	r0, #0
     d14:	bd10      	pop	{r4, pc}
     d16:	2001      	movs	r0, #1
     d18:	bd10      	pop	{r4, pc}
     d1a:	46c0      	nop			; (mov r8, r8)

00000d1c <__aeabi_fcmpge>:
     d1c:	b510      	push	{r4, lr}
     d1e:	f000 f84f 	bl	dc0 <__gesf2>
     d22:	2800      	cmp	r0, #0
     d24:	da01      	bge.n	d2a <__aeabi_fcmpge+0xe>
     d26:	2000      	movs	r0, #0
     d28:	bd10      	pop	{r4, pc}
     d2a:	2001      	movs	r0, #1
     d2c:	bd10      	pop	{r4, pc}
     d2e:	46c0      	nop			; (mov r8, r8)

00000d30 <__clzsi2>:
     d30:	211c      	movs	r1, #28
     d32:	2301      	movs	r3, #1
     d34:	041b      	lsls	r3, r3, #16
     d36:	4298      	cmp	r0, r3
     d38:	d301      	bcc.n	d3e <__clzsi2+0xe>
     d3a:	0c00      	lsrs	r0, r0, #16
     d3c:	3910      	subs	r1, #16
     d3e:	0a1b      	lsrs	r3, r3, #8
     d40:	4298      	cmp	r0, r3
     d42:	d301      	bcc.n	d48 <__clzsi2+0x18>
     d44:	0a00      	lsrs	r0, r0, #8
     d46:	3908      	subs	r1, #8
     d48:	091b      	lsrs	r3, r3, #4
     d4a:	4298      	cmp	r0, r3
     d4c:	d301      	bcc.n	d52 <__clzsi2+0x22>
     d4e:	0900      	lsrs	r0, r0, #4
     d50:	3904      	subs	r1, #4
     d52:	a202      	add	r2, pc, #8	; (adr r2, d5c <__clzsi2+0x2c>)
     d54:	5c10      	ldrb	r0, [r2, r0]
     d56:	1840      	adds	r0, r0, r1
     d58:	4770      	bx	lr
     d5a:	46c0      	nop			; (mov r8, r8)
     d5c:	02020304 	.word	0x02020304
     d60:	01010101 	.word	0x01010101
	...

00000d6c <__eqsf2>:
     d6c:	0243      	lsls	r3, r0, #9
     d6e:	b570      	push	{r4, r5, r6, lr}
     d70:	0042      	lsls	r2, r0, #1
     d72:	004c      	lsls	r4, r1, #1
     d74:	0a5d      	lsrs	r5, r3, #9
     d76:	0fc3      	lsrs	r3, r0, #31
     d78:	0248      	lsls	r0, r1, #9
     d7a:	0e12      	lsrs	r2, r2, #24
     d7c:	0a46      	lsrs	r6, r0, #9
     d7e:	0e24      	lsrs	r4, r4, #24
     d80:	0fc9      	lsrs	r1, r1, #31
     d82:	2aff      	cmp	r2, #255	; 0xff
     d84:	d005      	beq.n	d92 <__eqsf2+0x26>
     d86:	2cff      	cmp	r4, #255	; 0xff
     d88:	d008      	beq.n	d9c <__eqsf2+0x30>
     d8a:	2001      	movs	r0, #1
     d8c:	42a2      	cmp	r2, r4
     d8e:	d00b      	beq.n	da8 <__eqsf2+0x3c>
     d90:	bd70      	pop	{r4, r5, r6, pc}
     d92:	2001      	movs	r0, #1
     d94:	2d00      	cmp	r5, #0
     d96:	d1fb      	bne.n	d90 <__eqsf2+0x24>
     d98:	2cff      	cmp	r4, #255	; 0xff
     d9a:	d1f6      	bne.n	d8a <__eqsf2+0x1e>
     d9c:	2001      	movs	r0, #1
     d9e:	2e00      	cmp	r6, #0
     da0:	d1f6      	bne.n	d90 <__eqsf2+0x24>
     da2:	2001      	movs	r0, #1
     da4:	42a2      	cmp	r2, r4
     da6:	d1f3      	bne.n	d90 <__eqsf2+0x24>
     da8:	42b5      	cmp	r5, r6
     daa:	d1f1      	bne.n	d90 <__eqsf2+0x24>
     dac:	428b      	cmp	r3, r1
     dae:	d005      	beq.n	dbc <__eqsf2+0x50>
     db0:	2a00      	cmp	r2, #0
     db2:	d1ed      	bne.n	d90 <__eqsf2+0x24>
     db4:	1c28      	adds	r0, r5, #0
     db6:	1e43      	subs	r3, r0, #1
     db8:	4198      	sbcs	r0, r3
     dba:	e7e9      	b.n	d90 <__eqsf2+0x24>
     dbc:	2000      	movs	r0, #0
     dbe:	e7e7      	b.n	d90 <__eqsf2+0x24>

00000dc0 <__gesf2>:
     dc0:	b5f0      	push	{r4, r5, r6, r7, lr}
     dc2:	0243      	lsls	r3, r0, #9
     dc4:	024d      	lsls	r5, r1, #9
     dc6:	004a      	lsls	r2, r1, #1
     dc8:	0044      	lsls	r4, r0, #1
     dca:	0a5e      	lsrs	r6, r3, #9
     dcc:	0e24      	lsrs	r4, r4, #24
     dce:	0fc3      	lsrs	r3, r0, #31
     dd0:	0a6d      	lsrs	r5, r5, #9
     dd2:	0e12      	lsrs	r2, r2, #24
     dd4:	0fc9      	lsrs	r1, r1, #31
     dd6:	2cff      	cmp	r4, #255	; 0xff
     dd8:	d00d      	beq.n	df6 <__gesf2+0x36>
     dda:	2aff      	cmp	r2, #255	; 0xff
     ddc:	d031      	beq.n	e42 <__gesf2+0x82>
     dde:	2c00      	cmp	r4, #0
     de0:	d10d      	bne.n	dfe <__gesf2+0x3e>
     de2:	4277      	negs	r7, r6
     de4:	4177      	adcs	r7, r6
     de6:	2a00      	cmp	r2, #0
     de8:	d123      	bne.n	e32 <__gesf2+0x72>
     dea:	2d00      	cmp	r5, #0
     dec:	d121      	bne.n	e32 <__gesf2+0x72>
     dee:	2000      	movs	r0, #0
     df0:	2f00      	cmp	r7, #0
     df2:	d10b      	bne.n	e0c <__gesf2+0x4c>
     df4:	e007      	b.n	e06 <__gesf2+0x46>
     df6:	2e00      	cmp	r6, #0
     df8:	d128      	bne.n	e4c <__gesf2+0x8c>
     dfa:	2aff      	cmp	r2, #255	; 0xff
     dfc:	d021      	beq.n	e42 <__gesf2+0x82>
     dfe:	2a00      	cmp	r2, #0
     e00:	d005      	beq.n	e0e <__gesf2+0x4e>
     e02:	428b      	cmp	r3, r1
     e04:	d007      	beq.n	e16 <__gesf2+0x56>
     e06:	4258      	negs	r0, r3
     e08:	2301      	movs	r3, #1
     e0a:	4318      	orrs	r0, r3
     e0c:	bdf0      	pop	{r4, r5, r6, r7, pc}
     e0e:	2d00      	cmp	r5, #0
     e10:	d0f9      	beq.n	e06 <__gesf2+0x46>
     e12:	428b      	cmp	r3, r1
     e14:	d1f7      	bne.n	e06 <__gesf2+0x46>
     e16:	4294      	cmp	r4, r2
     e18:	dcf5      	bgt.n	e06 <__gesf2+0x46>
     e1a:	db04      	blt.n	e26 <__gesf2+0x66>
     e1c:	42ae      	cmp	r6, r5
     e1e:	d8f2      	bhi.n	e06 <__gesf2+0x46>
     e20:	2000      	movs	r0, #0
     e22:	42ae      	cmp	r6, r5
     e24:	d2f2      	bcs.n	e0c <__gesf2+0x4c>
     e26:	4258      	negs	r0, r3
     e28:	4143      	adcs	r3, r0
     e2a:	2001      	movs	r0, #1
     e2c:	425b      	negs	r3, r3
     e2e:	4318      	orrs	r0, r3
     e30:	e7ec      	b.n	e0c <__gesf2+0x4c>
     e32:	2f00      	cmp	r7, #0
     e34:	d0e5      	beq.n	e02 <__gesf2+0x42>
     e36:	4248      	negs	r0, r1
     e38:	4141      	adcs	r1, r0
     e3a:	2001      	movs	r0, #1
     e3c:	4249      	negs	r1, r1
     e3e:	4308      	orrs	r0, r1
     e40:	e7e4      	b.n	e0c <__gesf2+0x4c>
     e42:	2d00      	cmp	r5, #0
     e44:	d102      	bne.n	e4c <__gesf2+0x8c>
     e46:	2c00      	cmp	r4, #0
     e48:	d0cb      	beq.n	de2 <__gesf2+0x22>
     e4a:	e7da      	b.n	e02 <__gesf2+0x42>
     e4c:	2002      	movs	r0, #2
     e4e:	4240      	negs	r0, r0
     e50:	e7dc      	b.n	e0c <__gesf2+0x4c>
     e52:	46c0      	nop			; (mov r8, r8)

00000e54 <__lesf2>:
     e54:	0243      	lsls	r3, r0, #9
     e56:	b5f0      	push	{r4, r5, r6, r7, lr}
     e58:	0042      	lsls	r2, r0, #1
     e5a:	004c      	lsls	r4, r1, #1
     e5c:	0a5e      	lsrs	r6, r3, #9
     e5e:	0fc3      	lsrs	r3, r0, #31
     e60:	0248      	lsls	r0, r1, #9
     e62:	0e12      	lsrs	r2, r2, #24
     e64:	0a45      	lsrs	r5, r0, #9
     e66:	0e24      	lsrs	r4, r4, #24
     e68:	0fc9      	lsrs	r1, r1, #31
     e6a:	2aff      	cmp	r2, #255	; 0xff
     e6c:	d00f      	beq.n	e8e <__lesf2+0x3a>
     e6e:	2cff      	cmp	r4, #255	; 0xff
     e70:	d01a      	beq.n	ea8 <__lesf2+0x54>
     e72:	2a00      	cmp	r2, #0
     e74:	d110      	bne.n	e98 <__lesf2+0x44>
     e76:	4277      	negs	r7, r6
     e78:	4177      	adcs	r7, r6
     e7a:	2c00      	cmp	r4, #0
     e7c:	d029      	beq.n	ed2 <__lesf2+0x7e>
     e7e:	2f00      	cmp	r7, #0
     e80:	d017      	beq.n	eb2 <__lesf2+0x5e>
     e82:	4248      	negs	r0, r1
     e84:	4141      	adcs	r1, r0
     e86:	2001      	movs	r0, #1
     e88:	4249      	negs	r1, r1
     e8a:	4308      	orrs	r0, r1
     e8c:	e00b      	b.n	ea6 <__lesf2+0x52>
     e8e:	2002      	movs	r0, #2
     e90:	2e00      	cmp	r6, #0
     e92:	d108      	bne.n	ea6 <__lesf2+0x52>
     e94:	2cff      	cmp	r4, #255	; 0xff
     e96:	d007      	beq.n	ea8 <__lesf2+0x54>
     e98:	2c00      	cmp	r4, #0
     e9a:	d10a      	bne.n	eb2 <__lesf2+0x5e>
     e9c:	2d00      	cmp	r5, #0
     e9e:	d108      	bne.n	eb2 <__lesf2+0x5e>
     ea0:	4258      	negs	r0, r3
     ea2:	2301      	movs	r3, #1
     ea4:	4318      	orrs	r0, r3
     ea6:	bdf0      	pop	{r4, r5, r6, r7, pc}
     ea8:	2002      	movs	r0, #2
     eaa:	2d00      	cmp	r5, #0
     eac:	d1fb      	bne.n	ea6 <__lesf2+0x52>
     eae:	2a00      	cmp	r2, #0
     eb0:	d0e1      	beq.n	e76 <__lesf2+0x22>
     eb2:	428b      	cmp	r3, r1
     eb4:	d1f4      	bne.n	ea0 <__lesf2+0x4c>
     eb6:	42a2      	cmp	r2, r4
     eb8:	dcf2      	bgt.n	ea0 <__lesf2+0x4c>
     eba:	db04      	blt.n	ec6 <__lesf2+0x72>
     ebc:	42ae      	cmp	r6, r5
     ebe:	d8ef      	bhi.n	ea0 <__lesf2+0x4c>
     ec0:	2000      	movs	r0, #0
     ec2:	42ae      	cmp	r6, r5
     ec4:	d2ef      	bcs.n	ea6 <__lesf2+0x52>
     ec6:	4258      	negs	r0, r3
     ec8:	4143      	adcs	r3, r0
     eca:	2001      	movs	r0, #1
     ecc:	425b      	negs	r3, r3
     ece:	4318      	orrs	r0, r3
     ed0:	e7e9      	b.n	ea6 <__lesf2+0x52>
     ed2:	2d00      	cmp	r5, #0
     ed4:	d1d3      	bne.n	e7e <__lesf2+0x2a>
     ed6:	2000      	movs	r0, #0
     ed8:	2f00      	cmp	r7, #0
     eda:	d1e4      	bne.n	ea6 <__lesf2+0x52>
     edc:	e7e0      	b.n	ea0 <__lesf2+0x4c>
     ede:	46c0      	nop			; (mov r8, r8)

00000ee0 <__libc_init_array>:
     ee0:	b570      	push	{r4, r5, r6, lr}
     ee2:	4e0d      	ldr	r6, [pc, #52]	; (f18 <__libc_init_array+0x38>)
     ee4:	4d0d      	ldr	r5, [pc, #52]	; (f1c <__libc_init_array+0x3c>)
     ee6:	2400      	movs	r4, #0
     ee8:	1bad      	subs	r5, r5, r6
     eea:	10ad      	asrs	r5, r5, #2
     eec:	d005      	beq.n	efa <__libc_init_array+0x1a>
     eee:	00a3      	lsls	r3, r4, #2
     ef0:	58f3      	ldr	r3, [r6, r3]
     ef2:	3401      	adds	r4, #1
     ef4:	4798      	blx	r3
     ef6:	42a5      	cmp	r5, r4
     ef8:	d1f9      	bne.n	eee <__libc_init_array+0xe>
     efa:	f000 f911 	bl	1120 <_init>
     efe:	4e08      	ldr	r6, [pc, #32]	; (f20 <__libc_init_array+0x40>)
     f00:	4d08      	ldr	r5, [pc, #32]	; (f24 <__libc_init_array+0x44>)
     f02:	2400      	movs	r4, #0
     f04:	1bad      	subs	r5, r5, r6
     f06:	10ad      	asrs	r5, r5, #2
     f08:	d005      	beq.n	f16 <__libc_init_array+0x36>
     f0a:	00a3      	lsls	r3, r4, #2
     f0c:	58f3      	ldr	r3, [r6, r3]
     f0e:	3401      	adds	r4, #1
     f10:	4798      	blx	r3
     f12:	42a5      	cmp	r5, r4
     f14:	d1f9      	bne.n	f0a <__libc_init_array+0x2a>
     f16:	bd70      	pop	{r4, r5, r6, pc}
     f18:	0000112c 	.word	0x0000112c
     f1c:	0000112c 	.word	0x0000112c
     f20:	0000112c 	.word	0x0000112c
     f24:	00001134 	.word	0x00001134

00000f28 <register_fini>:
     f28:	b508      	push	{r3, lr}
     f2a:	4b03      	ldr	r3, [pc, #12]	; (f38 <register_fini+0x10>)
     f2c:	2b00      	cmp	r3, #0
     f2e:	d002      	beq.n	f36 <register_fini+0xe>
     f30:	4802      	ldr	r0, [pc, #8]	; (f3c <register_fini+0x14>)
     f32:	f000 f805 	bl	f40 <atexit>
     f36:	bd08      	pop	{r3, pc}
     f38:	00000000 	.word	0x00000000
     f3c:	00000f51 	.word	0x00000f51

00000f40 <atexit>:
     f40:	b508      	push	{r3, lr}
     f42:	1c01      	adds	r1, r0, #0
     f44:	2200      	movs	r2, #0
     f46:	2000      	movs	r0, #0
     f48:	2300      	movs	r3, #0
     f4a:	f000 f81b 	bl	f84 <__register_exitproc>
     f4e:	bd08      	pop	{r3, pc}

00000f50 <__libc_fini_array>:
     f50:	b538      	push	{r3, r4, r5, lr}
     f52:	4b09      	ldr	r3, [pc, #36]	; (f78 <__libc_fini_array+0x28>)
     f54:	4c09      	ldr	r4, [pc, #36]	; (f7c <__libc_fini_array+0x2c>)
     f56:	1ae4      	subs	r4, r4, r3
     f58:	10a4      	asrs	r4, r4, #2
     f5a:	d009      	beq.n	f70 <__libc_fini_array+0x20>
     f5c:	4a08      	ldr	r2, [pc, #32]	; (f80 <__libc_fini_array+0x30>)
     f5e:	18a5      	adds	r5, r4, r2
     f60:	00ad      	lsls	r5, r5, #2
     f62:	18ed      	adds	r5, r5, r3
     f64:	682b      	ldr	r3, [r5, #0]
     f66:	3c01      	subs	r4, #1
     f68:	4798      	blx	r3
     f6a:	3d04      	subs	r5, #4
     f6c:	2c00      	cmp	r4, #0
     f6e:	d1f9      	bne.n	f64 <__libc_fini_array+0x14>
     f70:	f000 f8e0 	bl	1134 <_fini>
     f74:	bd38      	pop	{r3, r4, r5, pc}
     f76:	46c0      	nop			; (mov r8, r8)
     f78:	00001140 	.word	0x00001140
     f7c:	00001144 	.word	0x00001144
     f80:	3fffffff 	.word	0x3fffffff

00000f84 <__register_exitproc>:
     f84:	b5f8      	push	{r3, r4, r5, r6, r7, lr}
     f86:	4644      	mov	r4, r8
     f88:	465f      	mov	r7, fp
     f8a:	4656      	mov	r6, sl
     f8c:	464d      	mov	r5, r9
     f8e:	469b      	mov	fp, r3
     f90:	4b2f      	ldr	r3, [pc, #188]	; (1050 <__register_exitproc+0xcc>)
     f92:	b4f0      	push	{r4, r5, r6, r7}
     f94:	681c      	ldr	r4, [r3, #0]
     f96:	23a4      	movs	r3, #164	; 0xa4
     f98:	005b      	lsls	r3, r3, #1
     f9a:	1c05      	adds	r5, r0, #0
     f9c:	58e0      	ldr	r0, [r4, r3]
     f9e:	1c0e      	adds	r6, r1, #0
     fa0:	4690      	mov	r8, r2
     fa2:	2800      	cmp	r0, #0
     fa4:	d04b      	beq.n	103e <__register_exitproc+0xba>
     fa6:	6843      	ldr	r3, [r0, #4]
     fa8:	2b1f      	cmp	r3, #31
     faa:	dc0d      	bgt.n	fc8 <__register_exitproc+0x44>
     fac:	1c5c      	adds	r4, r3, #1
     fae:	2d00      	cmp	r5, #0
     fb0:	d121      	bne.n	ff6 <__register_exitproc+0x72>
     fb2:	3302      	adds	r3, #2
     fb4:	009b      	lsls	r3, r3, #2
     fb6:	6044      	str	r4, [r0, #4]
     fb8:	501e      	str	r6, [r3, r0]
     fba:	2000      	movs	r0, #0
     fbc:	bc3c      	pop	{r2, r3, r4, r5}
     fbe:	4690      	mov	r8, r2
     fc0:	4699      	mov	r9, r3
     fc2:	46a2      	mov	sl, r4
     fc4:	46ab      	mov	fp, r5
     fc6:	bdf8      	pop	{r3, r4, r5, r6, r7, pc}
     fc8:	4b22      	ldr	r3, [pc, #136]	; (1054 <__register_exitproc+0xd0>)
     fca:	2b00      	cmp	r3, #0
     fcc:	d03c      	beq.n	1048 <__register_exitproc+0xc4>
     fce:	20c8      	movs	r0, #200	; 0xc8
     fd0:	0040      	lsls	r0, r0, #1
     fd2:	e000      	b.n	fd6 <__register_exitproc+0x52>
     fd4:	bf00      	nop
     fd6:	2800      	cmp	r0, #0
     fd8:	d036      	beq.n	1048 <__register_exitproc+0xc4>
     fda:	22a4      	movs	r2, #164	; 0xa4
     fdc:	2300      	movs	r3, #0
     fde:	0052      	lsls	r2, r2, #1
     fe0:	58a1      	ldr	r1, [r4, r2]
     fe2:	6043      	str	r3, [r0, #4]
     fe4:	6001      	str	r1, [r0, #0]
     fe6:	50a0      	str	r0, [r4, r2]
     fe8:	3240      	adds	r2, #64	; 0x40
     fea:	5083      	str	r3, [r0, r2]
     fec:	3204      	adds	r2, #4
     fee:	5083      	str	r3, [r0, r2]
     ff0:	2401      	movs	r4, #1
     ff2:	2d00      	cmp	r5, #0
     ff4:	d0dd      	beq.n	fb2 <__register_exitproc+0x2e>
     ff6:	009a      	lsls	r2, r3, #2
     ff8:	4691      	mov	r9, r2
     ffa:	4481      	add	r9, r0
     ffc:	4642      	mov	r2, r8
     ffe:	2188      	movs	r1, #136	; 0x88
    1000:	464f      	mov	r7, r9
    1002:	507a      	str	r2, [r7, r1]
    1004:	22c4      	movs	r2, #196	; 0xc4
    1006:	0052      	lsls	r2, r2, #1
    1008:	4690      	mov	r8, r2
    100a:	4480      	add	r8, r0
    100c:	4642      	mov	r2, r8
    100e:	3987      	subs	r1, #135	; 0x87
    1010:	4099      	lsls	r1, r3
    1012:	6812      	ldr	r2, [r2, #0]
    1014:	468a      	mov	sl, r1
    1016:	430a      	orrs	r2, r1
    1018:	4694      	mov	ip, r2
    101a:	4642      	mov	r2, r8
    101c:	4661      	mov	r1, ip
    101e:	6011      	str	r1, [r2, #0]
    1020:	2284      	movs	r2, #132	; 0x84
    1022:	4649      	mov	r1, r9
    1024:	465f      	mov	r7, fp
    1026:	0052      	lsls	r2, r2, #1
    1028:	508f      	str	r7, [r1, r2]
    102a:	2d02      	cmp	r5, #2
    102c:	d1c1      	bne.n	fb2 <__register_exitproc+0x2e>
    102e:	1c02      	adds	r2, r0, #0
    1030:	4655      	mov	r5, sl
    1032:	328d      	adds	r2, #141	; 0x8d
    1034:	32ff      	adds	r2, #255	; 0xff
    1036:	6811      	ldr	r1, [r2, #0]
    1038:	430d      	orrs	r5, r1
    103a:	6015      	str	r5, [r2, #0]
    103c:	e7b9      	b.n	fb2 <__register_exitproc+0x2e>
    103e:	1c20      	adds	r0, r4, #0
    1040:	304d      	adds	r0, #77	; 0x4d
    1042:	30ff      	adds	r0, #255	; 0xff
    1044:	50e0      	str	r0, [r4, r3]
    1046:	e7ae      	b.n	fa6 <__register_exitproc+0x22>
    1048:	2001      	movs	r0, #1
    104a:	4240      	negs	r0, r0
    104c:	e7b6      	b.n	fbc <__register_exitproc+0x38>
    104e:	46c0      	nop			; (mov r8, r8)
    1050:	0000111c 	.word	0x0000111c
    1054:	00000000 	.word	0x00000000
    1058:	00000572 	.word	0x00000572
    105c:	0000053a 	.word	0x0000053a
    1060:	00000556 	.word	0x00000556
    1064:	0000052e 	.word	0x0000052e
    1068:	00000556 	.word	0x00000556
    106c:	0000049a 	.word	0x0000049a
    1070:	00000556 	.word	0x00000556
    1074:	0000052e 	.word	0x0000052e
    1078:	0000053a 	.word	0x0000053a
    107c:	0000053a 	.word	0x0000053a
    1080:	0000049a 	.word	0x0000049a
    1084:	0000052e 	.word	0x0000052e
    1088:	000005d8 	.word	0x000005d8
    108c:	000005d8 	.word	0x000005d8
    1090:	000005d8 	.word	0x000005d8
    1094:	0000055c 	.word	0x0000055c
    1098:	0000053a 	.word	0x0000053a
    109c:	0000053a 	.word	0x0000053a
    10a0:	00000622 	.word	0x00000622
    10a4:	0000052c 	.word	0x0000052c
    10a8:	00000622 	.word	0x00000622
    10ac:	0000049a 	.word	0x0000049a
    10b0:	00000622 	.word	0x00000622
    10b4:	0000052c 	.word	0x0000052c
    10b8:	0000053a 	.word	0x0000053a
    10bc:	0000053a 	.word	0x0000053a
    10c0:	0000049a 	.word	0x0000049a
    10c4:	0000052c 	.word	0x0000052c
    10c8:	000005d8 	.word	0x000005d8
    10cc:	000005d8 	.word	0x000005d8
    10d0:	000005d8 	.word	0x000005d8
    10d4:	00000606 	.word	0x00000606
    10d8:	000007c6 	.word	0x000007c6
    10dc:	000007be 	.word	0x000007be
    10e0:	000007be 	.word	0x000007be
    10e4:	000007b6 	.word	0x000007b6
    10e8:	00000708 	.word	0x00000708
    10ec:	00000708 	.word	0x00000708
    10f0:	000007ac 	.word	0x000007ac
    10f4:	000007b6 	.word	0x000007b6
    10f8:	00000708 	.word	0x00000708
    10fc:	000007ac 	.word	0x000007ac
    1100:	00000708 	.word	0x00000708
    1104:	000007b6 	.word	0x000007b6
    1108:	0000070a 	.word	0x0000070a
    110c:	0000070a 	.word	0x0000070a
    1110:	0000070a 	.word	0x0000070a
    1114:	00000850 	.word	0x00000850
    1118:	00000043 	.word	0x00000043

0000111c <_global_impure_ptr>:
    111c:	20000010                                ... 

00001120 <_init>:
    1120:	b5f8      	push	{r3, r4, r5, r6, r7, lr}
    1122:	46c0      	nop			; (mov r8, r8)
    1124:	bcf8      	pop	{r3, r4, r5, r6, r7}
    1126:	bc08      	pop	{r3}
    1128:	469e      	mov	lr, r3
    112a:	4770      	bx	lr

0000112c <__init_array_start>:
    112c:	00000f29 	.word	0x00000f29

00001130 <__frame_dummy_init_array_entry>:
    1130:	000000b5                                ....

00001134 <_fini>:
    1134:	b5f8      	push	{r3, r4, r5, r6, r7, lr}
    1136:	46c0      	nop			; (mov r8, r8)
    1138:	bcf8      	pop	{r3, r4, r5, r6, r7}
    113a:	bc08      	pop	{r3}
    113c:	469e      	mov	lr, r3
    113e:	4770      	bx	lr

00001140 <__fini_array_start>:
    1140:	0000008d 	.word	0x0000008d
